ARM GAS  D:\cygwin64\tmp\ccVIozHZ.s 			page 1


   1              		.cpu cortex-m7
   2              		.arch armv7e-m
   3              		.fpu fpv5-sp-d16
   4              		.eabi_attribute 27, 1
   5              		.eabi_attribute 28, 1
   6              		.eabi_attribute 20, 1
   7              		.eabi_attribute 21, 1
   8              		.eabi_attribute 23, 3
   9              		.eabi_attribute 24, 1
  10              		.eabi_attribute 25, 1
  11              		.eabi_attribute 26, 1
  12              		.eabi_attribute 30, 1
  13              		.eabi_attribute 34, 1
  14              		.eabi_attribute 18, 4
  15              		.file	"stm32746g_discovery.c"
  16              		.text
  17              	.Ltext0:
  18              		.cfi_sections	.debug_frame
  19              		.file 1 "Drivers/BSP/STM32746G-Discovery/stm32746g_discovery.c"
  20              		.section	.text.I2Cx_MspInit,"ax",%progbits
  21              		.align	1
  22              		.syntax unified
  23              		.thumb
  24              		.thumb_func
  26              	I2Cx_MspInit:
  27              	.LVL0:
  28              	.LFB152:
   1:Drivers/BSP/STM32746G-Discovery/stm32746g_discovery.c **** /**
   2:Drivers/BSP/STM32746G-Discovery/stm32746g_discovery.c ****   ******************************************************************************
   3:Drivers/BSP/STM32746G-Discovery/stm32746g_discovery.c ****   * @file    stm32746g_discovery.c
   4:Drivers/BSP/STM32746G-Discovery/stm32746g_discovery.c ****   * @author  MCD Application Team
   5:Drivers/BSP/STM32746G-Discovery/stm32746g_discovery.c ****   * @brief   This file provides a set of firmware functions to manage LEDs, 
   6:Drivers/BSP/STM32746G-Discovery/stm32746g_discovery.c ****   *          push-buttons and COM ports available on STM32746G-Discovery
   7:Drivers/BSP/STM32746G-Discovery/stm32746g_discovery.c ****   *          board(MB1191) from STMicroelectronics.
   8:Drivers/BSP/STM32746G-Discovery/stm32746g_discovery.c ****   ******************************************************************************
   9:Drivers/BSP/STM32746G-Discovery/stm32746g_discovery.c ****   * @attention
  10:Drivers/BSP/STM32746G-Discovery/stm32746g_discovery.c ****   *
  11:Drivers/BSP/STM32746G-Discovery/stm32746g_discovery.c ****   * Copyright (c) 2016 STMicroelectronics.
  12:Drivers/BSP/STM32746G-Discovery/stm32746g_discovery.c ****   * All rights reserved.
  13:Drivers/BSP/STM32746G-Discovery/stm32746g_discovery.c ****   *
  14:Drivers/BSP/STM32746G-Discovery/stm32746g_discovery.c ****   * This software is licensed under terms that can be found in the LICENSE file
  15:Drivers/BSP/STM32746G-Discovery/stm32746g_discovery.c ****   * in the root directory of this software component.
  16:Drivers/BSP/STM32746G-Discovery/stm32746g_discovery.c ****   * If no LICENSE file comes with this software, it is provided AS-IS.
  17:Drivers/BSP/STM32746G-Discovery/stm32746g_discovery.c ****   *
  18:Drivers/BSP/STM32746G-Discovery/stm32746g_discovery.c ****   ******************************************************************************
  19:Drivers/BSP/STM32746G-Discovery/stm32746g_discovery.c ****   */
  20:Drivers/BSP/STM32746G-Discovery/stm32746g_discovery.c **** 
  21:Drivers/BSP/STM32746G-Discovery/stm32746g_discovery.c **** /* Dependencies
  22:Drivers/BSP/STM32746G-Discovery/stm32746g_discovery.c **** - stm32f7xx_hal_cortex.c
  23:Drivers/BSP/STM32746G-Discovery/stm32746g_discovery.c **** - stm32f7xx_hal_gpio.c
  24:Drivers/BSP/STM32746G-Discovery/stm32746g_discovery.c **** - stm32f7xx_hal_uart.c
  25:Drivers/BSP/STM32746G-Discovery/stm32746g_discovery.c **** - stm32f7xx_hal_i2c.c
  26:Drivers/BSP/STM32746G-Discovery/stm32746g_discovery.c **** EndDependencies */
  27:Drivers/BSP/STM32746G-Discovery/stm32746g_discovery.c **** 
  28:Drivers/BSP/STM32746G-Discovery/stm32746g_discovery.c **** /* Includes ------------------------------------------------------------------*/
  29:Drivers/BSP/STM32746G-Discovery/stm32746g_discovery.c **** #include "stm32746g_discovery.h"
  30:Drivers/BSP/STM32746G-Discovery/stm32746g_discovery.c **** 
ARM GAS  D:\cygwin64\tmp\ccVIozHZ.s 			page 2


  31:Drivers/BSP/STM32746G-Discovery/stm32746g_discovery.c **** /** @addtogroup BSP
  32:Drivers/BSP/STM32746G-Discovery/stm32746g_discovery.c ****   * @{
  33:Drivers/BSP/STM32746G-Discovery/stm32746g_discovery.c ****   */ 
  34:Drivers/BSP/STM32746G-Discovery/stm32746g_discovery.c **** 
  35:Drivers/BSP/STM32746G-Discovery/stm32746g_discovery.c **** /** @addtogroup STM32746G_DISCOVERY
  36:Drivers/BSP/STM32746G-Discovery/stm32746g_discovery.c ****   * @{
  37:Drivers/BSP/STM32746G-Discovery/stm32746g_discovery.c ****   */
  38:Drivers/BSP/STM32746G-Discovery/stm32746g_discovery.c **** 
  39:Drivers/BSP/STM32746G-Discovery/stm32746g_discovery.c **** /** @defgroup STM32746G_DISCOVERY_LOW_LEVEL STM32746G_DISCOVERY_LOW_LEVEL
  40:Drivers/BSP/STM32746G-Discovery/stm32746g_discovery.c ****   * @{
  41:Drivers/BSP/STM32746G-Discovery/stm32746g_discovery.c ****   */
  42:Drivers/BSP/STM32746G-Discovery/stm32746g_discovery.c **** 
  43:Drivers/BSP/STM32746G-Discovery/stm32746g_discovery.c **** /** @defgroup STM32746G_DISCOVERY_LOW_LEVEL_Private_TypesDefinitions STM32746G_DISCOVERY_LOW_LEVEL 
  44:Drivers/BSP/STM32746G-Discovery/stm32746g_discovery.c ****   * @{
  45:Drivers/BSP/STM32746G-Discovery/stm32746g_discovery.c ****   */
  46:Drivers/BSP/STM32746G-Discovery/stm32746g_discovery.c **** /**
  47:Drivers/BSP/STM32746G-Discovery/stm32746g_discovery.c ****   * @}
  48:Drivers/BSP/STM32746G-Discovery/stm32746g_discovery.c ****   */
  49:Drivers/BSP/STM32746G-Discovery/stm32746g_discovery.c **** 
  50:Drivers/BSP/STM32746G-Discovery/stm32746g_discovery.c **** /** @defgroup STM32746G_DISCOVERY_LOW_LEVEL_Private_Defines STM32746G_DISCOVERY_LOW_LEVEL Private D
  51:Drivers/BSP/STM32746G-Discovery/stm32746g_discovery.c ****   * @{
  52:Drivers/BSP/STM32746G-Discovery/stm32746g_discovery.c ****   */
  53:Drivers/BSP/STM32746G-Discovery/stm32746g_discovery.c **** /**
  54:Drivers/BSP/STM32746G-Discovery/stm32746g_discovery.c ****  * @brief STM32746G DISCOVERY BSP Driver version number V2.0.4
  55:Drivers/BSP/STM32746G-Discovery/stm32746g_discovery.c ****    */
  56:Drivers/BSP/STM32746G-Discovery/stm32746g_discovery.c **** #define __STM32746G_DISCO_BSP_VERSION_MAIN   (0x02) /*!< [31:24] main version */
  57:Drivers/BSP/STM32746G-Discovery/stm32746g_discovery.c **** #define __STM32746G_DISCO_BSP_VERSION_SUB1   (0x00) /*!< [23:16] sub1 version */
  58:Drivers/BSP/STM32746G-Discovery/stm32746g_discovery.c **** #define __STM32746G_DISCO_BSP_VERSION_SUB2   (0x04) /*!< [15:8]  sub2 version */
  59:Drivers/BSP/STM32746G-Discovery/stm32746g_discovery.c **** #define __STM32746G_DISCO_BSP_VERSION_RC     (0x00) /*!< [7:0]  release candidate */
  60:Drivers/BSP/STM32746G-Discovery/stm32746g_discovery.c **** #define __STM32746G_DISCO_BSP_VERSION         ((__STM32746G_DISCO_BSP_VERSION_MAIN << 24)\
  61:Drivers/BSP/STM32746G-Discovery/stm32746g_discovery.c ****                                              |(__STM32746G_DISCO_BSP_VERSION_SUB1 << 16)\
  62:Drivers/BSP/STM32746G-Discovery/stm32746g_discovery.c ****                                              |(__STM32746G_DISCO_BSP_VERSION_SUB2 << 8 )\
  63:Drivers/BSP/STM32746G-Discovery/stm32746g_discovery.c ****                                              |(__STM32746G_DISCO_BSP_VERSION_RC))
  64:Drivers/BSP/STM32746G-Discovery/stm32746g_discovery.c **** /**
  65:Drivers/BSP/STM32746G-Discovery/stm32746g_discovery.c ****   * @}
  66:Drivers/BSP/STM32746G-Discovery/stm32746g_discovery.c ****   */
  67:Drivers/BSP/STM32746G-Discovery/stm32746g_discovery.c **** 
  68:Drivers/BSP/STM32746G-Discovery/stm32746g_discovery.c **** /** @defgroup STM32746G_DISCOVERY_LOW_LEVEL_Private_Macros STM32746G_DISCOVERY_LOW_LEVEL Private Ma
  69:Drivers/BSP/STM32746G-Discovery/stm32746g_discovery.c ****   * @{
  70:Drivers/BSP/STM32746G-Discovery/stm32746g_discovery.c ****   */
  71:Drivers/BSP/STM32746G-Discovery/stm32746g_discovery.c **** /**
  72:Drivers/BSP/STM32746G-Discovery/stm32746g_discovery.c ****   * @}
  73:Drivers/BSP/STM32746G-Discovery/stm32746g_discovery.c ****   */
  74:Drivers/BSP/STM32746G-Discovery/stm32746g_discovery.c **** 
  75:Drivers/BSP/STM32746G-Discovery/stm32746g_discovery.c **** /** @defgroup STM32746G_DISCOVERY_LOW_LEVEL_Private_Variables STM32746G_DISCOVERY_LOW_LEVEL Private
  76:Drivers/BSP/STM32746G-Discovery/stm32746g_discovery.c ****   * @{
  77:Drivers/BSP/STM32746G-Discovery/stm32746g_discovery.c ****   */
  78:Drivers/BSP/STM32746G-Discovery/stm32746g_discovery.c **** 
  79:Drivers/BSP/STM32746G-Discovery/stm32746g_discovery.c **** const uint32_t GPIO_PIN[LEDn] = {LED1_PIN};
  80:Drivers/BSP/STM32746G-Discovery/stm32746g_discovery.c **** 
  81:Drivers/BSP/STM32746G-Discovery/stm32746g_discovery.c **** GPIO_TypeDef* BUTTON_PORT[BUTTONn] = {WAKEUP_BUTTON_GPIO_PORT,
  82:Drivers/BSP/STM32746G-Discovery/stm32746g_discovery.c ****                                       TAMPER_BUTTON_GPIO_PORT,
  83:Drivers/BSP/STM32746G-Discovery/stm32746g_discovery.c ****                                       KEY_BUTTON_GPIO_PORT};
  84:Drivers/BSP/STM32746G-Discovery/stm32746g_discovery.c **** 
  85:Drivers/BSP/STM32746G-Discovery/stm32746g_discovery.c **** const uint16_t BUTTON_PIN[BUTTONn] = {WAKEUP_BUTTON_PIN,
  86:Drivers/BSP/STM32746G-Discovery/stm32746g_discovery.c ****                                       TAMPER_BUTTON_PIN,
  87:Drivers/BSP/STM32746G-Discovery/stm32746g_discovery.c ****                                       KEY_BUTTON_PIN};
ARM GAS  D:\cygwin64\tmp\ccVIozHZ.s 			page 3


  88:Drivers/BSP/STM32746G-Discovery/stm32746g_discovery.c **** 
  89:Drivers/BSP/STM32746G-Discovery/stm32746g_discovery.c **** const uint16_t BUTTON_IRQn[BUTTONn] = {WAKEUP_BUTTON_EXTI_IRQn,
  90:Drivers/BSP/STM32746G-Discovery/stm32746g_discovery.c ****                                        TAMPER_BUTTON_EXTI_IRQn,
  91:Drivers/BSP/STM32746G-Discovery/stm32746g_discovery.c ****                                        KEY_BUTTON_EXTI_IRQn};
  92:Drivers/BSP/STM32746G-Discovery/stm32746g_discovery.c **** 
  93:Drivers/BSP/STM32746G-Discovery/stm32746g_discovery.c **** USART_TypeDef* COM_USART[COMn] = {DISCOVERY_COM1};
  94:Drivers/BSP/STM32746G-Discovery/stm32746g_discovery.c **** 
  95:Drivers/BSP/STM32746G-Discovery/stm32746g_discovery.c **** GPIO_TypeDef* COM_TX_PORT[COMn] = {DISCOVERY_COM1_TX_GPIO_PORT};
  96:Drivers/BSP/STM32746G-Discovery/stm32746g_discovery.c **** 
  97:Drivers/BSP/STM32746G-Discovery/stm32746g_discovery.c **** GPIO_TypeDef* COM_RX_PORT[COMn] = {DISCOVERY_COM1_RX_GPIO_PORT};
  98:Drivers/BSP/STM32746G-Discovery/stm32746g_discovery.c **** 
  99:Drivers/BSP/STM32746G-Discovery/stm32746g_discovery.c **** const uint16_t COM_TX_PIN[COMn] = {DISCOVERY_COM1_TX_PIN};
 100:Drivers/BSP/STM32746G-Discovery/stm32746g_discovery.c **** 
 101:Drivers/BSP/STM32746G-Discovery/stm32746g_discovery.c **** const uint16_t COM_RX_PIN[COMn] = {DISCOVERY_COM1_RX_PIN};
 102:Drivers/BSP/STM32746G-Discovery/stm32746g_discovery.c **** 
 103:Drivers/BSP/STM32746G-Discovery/stm32746g_discovery.c **** const uint16_t COM_TX_AF[COMn] = {DISCOVERY_COM1_TX_AF};
 104:Drivers/BSP/STM32746G-Discovery/stm32746g_discovery.c **** 
 105:Drivers/BSP/STM32746G-Discovery/stm32746g_discovery.c **** const uint16_t COM_RX_AF[COMn] = {DISCOVERY_COM1_RX_AF};
 106:Drivers/BSP/STM32746G-Discovery/stm32746g_discovery.c **** 
 107:Drivers/BSP/STM32746G-Discovery/stm32746g_discovery.c **** static I2C_HandleTypeDef hI2cAudioHandler = {0};
 108:Drivers/BSP/STM32746G-Discovery/stm32746g_discovery.c **** static I2C_HandleTypeDef hI2cExtHandler = {0};
 109:Drivers/BSP/STM32746G-Discovery/stm32746g_discovery.c **** 
 110:Drivers/BSP/STM32746G-Discovery/stm32746g_discovery.c **** /**
 111:Drivers/BSP/STM32746G-Discovery/stm32746g_discovery.c ****   * @}
 112:Drivers/BSP/STM32746G-Discovery/stm32746g_discovery.c ****   */
 113:Drivers/BSP/STM32746G-Discovery/stm32746g_discovery.c **** 
 114:Drivers/BSP/STM32746G-Discovery/stm32746g_discovery.c **** /** @defgroup STM32746G_DISCOVERY_LOW_LEVEL_Private_FunctionPrototypes STM32746G_DISCOVERY_LOW_LEVE
 115:Drivers/BSP/STM32746G-Discovery/stm32746g_discovery.c ****   * @{
 116:Drivers/BSP/STM32746G-Discovery/stm32746g_discovery.c ****   */
 117:Drivers/BSP/STM32746G-Discovery/stm32746g_discovery.c **** static void     I2Cx_MspInit(I2C_HandleTypeDef *i2c_handler);
 118:Drivers/BSP/STM32746G-Discovery/stm32746g_discovery.c **** static void     I2Cx_Init(I2C_HandleTypeDef *i2c_handler);
 119:Drivers/BSP/STM32746G-Discovery/stm32746g_discovery.c **** 
 120:Drivers/BSP/STM32746G-Discovery/stm32746g_discovery.c **** static HAL_StatusTypeDef I2Cx_ReadMultiple(I2C_HandleTypeDef *i2c_handler, uint8_t Addr, uint16_t R
 121:Drivers/BSP/STM32746G-Discovery/stm32746g_discovery.c **** static HAL_StatusTypeDef I2Cx_WriteMultiple(I2C_HandleTypeDef *i2c_handler, uint8_t Addr, uint16_t 
 122:Drivers/BSP/STM32746G-Discovery/stm32746g_discovery.c **** static HAL_StatusTypeDef I2Cx_IsDeviceReady(I2C_HandleTypeDef *i2c_handler, uint16_t DevAddress, ui
 123:Drivers/BSP/STM32746G-Discovery/stm32746g_discovery.c **** static void              I2Cx_Error(I2C_HandleTypeDef *i2c_handler, uint8_t Addr);
 124:Drivers/BSP/STM32746G-Discovery/stm32746g_discovery.c **** 
 125:Drivers/BSP/STM32746G-Discovery/stm32746g_discovery.c **** /* AUDIO IO functions */
 126:Drivers/BSP/STM32746G-Discovery/stm32746g_discovery.c **** void            AUDIO_IO_Init(void);
 127:Drivers/BSP/STM32746G-Discovery/stm32746g_discovery.c **** void            AUDIO_IO_DeInit(void);
 128:Drivers/BSP/STM32746G-Discovery/stm32746g_discovery.c **** void            AUDIO_IO_Write(uint8_t Addr, uint16_t Reg, uint16_t Value);
 129:Drivers/BSP/STM32746G-Discovery/stm32746g_discovery.c **** uint16_t        AUDIO_IO_Read(uint8_t Addr, uint16_t Reg);
 130:Drivers/BSP/STM32746G-Discovery/stm32746g_discovery.c **** void            AUDIO_IO_Delay(uint32_t Delay);
 131:Drivers/BSP/STM32746G-Discovery/stm32746g_discovery.c **** 
 132:Drivers/BSP/STM32746G-Discovery/stm32746g_discovery.c **** /* TOUCHSCREEN IO functions */
 133:Drivers/BSP/STM32746G-Discovery/stm32746g_discovery.c **** void            TS_IO_Init(void);
 134:Drivers/BSP/STM32746G-Discovery/stm32746g_discovery.c **** void            TS_IO_Write(uint8_t Addr, uint8_t Reg, uint8_t Value);
 135:Drivers/BSP/STM32746G-Discovery/stm32746g_discovery.c **** uint8_t         TS_IO_Read(uint8_t Addr, uint8_t Reg);
 136:Drivers/BSP/STM32746G-Discovery/stm32746g_discovery.c **** void            TS_IO_Delay(uint32_t Delay);
 137:Drivers/BSP/STM32746G-Discovery/stm32746g_discovery.c **** 
 138:Drivers/BSP/STM32746G-Discovery/stm32746g_discovery.c **** /* CAMERA IO functions */
 139:Drivers/BSP/STM32746G-Discovery/stm32746g_discovery.c **** void            CAMERA_IO_Init(void);
 140:Drivers/BSP/STM32746G-Discovery/stm32746g_discovery.c **** void            CAMERA_Delay(uint32_t Delay);
 141:Drivers/BSP/STM32746G-Discovery/stm32746g_discovery.c **** void            CAMERA_IO_Write(uint8_t Addr, uint8_t Reg, uint8_t Value);
 142:Drivers/BSP/STM32746G-Discovery/stm32746g_discovery.c **** uint8_t         CAMERA_IO_Read(uint8_t Addr, uint8_t Reg);
 143:Drivers/BSP/STM32746G-Discovery/stm32746g_discovery.c **** 
 144:Drivers/BSP/STM32746G-Discovery/stm32746g_discovery.c **** /* I2C EEPROM IO function */
ARM GAS  D:\cygwin64\tmp\ccVIozHZ.s 			page 4


 145:Drivers/BSP/STM32746G-Discovery/stm32746g_discovery.c **** void                EEPROM_IO_Init(void);
 146:Drivers/BSP/STM32746G-Discovery/stm32746g_discovery.c **** HAL_StatusTypeDef   EEPROM_IO_WriteData(uint16_t DevAddress, uint16_t MemAddress, uint8_t* pBuffer,
 147:Drivers/BSP/STM32746G-Discovery/stm32746g_discovery.c **** HAL_StatusTypeDef   EEPROM_IO_ReadData(uint16_t DevAddress, uint16_t MemAddress, uint8_t* pBuffer, 
 148:Drivers/BSP/STM32746G-Discovery/stm32746g_discovery.c **** HAL_StatusTypeDef   EEPROM_IO_IsDeviceReady(uint16_t DevAddress, uint32_t Trials);
 149:Drivers/BSP/STM32746G-Discovery/stm32746g_discovery.c **** /**
 150:Drivers/BSP/STM32746G-Discovery/stm32746g_discovery.c ****   * @}
 151:Drivers/BSP/STM32746G-Discovery/stm32746g_discovery.c ****   */
 152:Drivers/BSP/STM32746G-Discovery/stm32746g_discovery.c **** 
 153:Drivers/BSP/STM32746G-Discovery/stm32746g_discovery.c **** /** @defgroup STM32746G_DISCOVERY_LOW_LEVEL_Exported_Functions STM32746G_DISCOVERY_LOW_LEVELSTM3274
 154:Drivers/BSP/STM32746G-Discovery/stm32746g_discovery.c ****   * @{
 155:Drivers/BSP/STM32746G-Discovery/stm32746g_discovery.c ****   */ 
 156:Drivers/BSP/STM32746G-Discovery/stm32746g_discovery.c **** 
 157:Drivers/BSP/STM32746G-Discovery/stm32746g_discovery.c ****   /**
 158:Drivers/BSP/STM32746G-Discovery/stm32746g_discovery.c ****   * @brief  This method returns the STM32746G DISCOVERY BSP Driver revision
 159:Drivers/BSP/STM32746G-Discovery/stm32746g_discovery.c ****   * @retval version: 0xXYZR (8bits for each decimal, R for RC)
 160:Drivers/BSP/STM32746G-Discovery/stm32746g_discovery.c ****   */
 161:Drivers/BSP/STM32746G-Discovery/stm32746g_discovery.c **** uint32_t BSP_GetVersion(void)
 162:Drivers/BSP/STM32746G-Discovery/stm32746g_discovery.c **** {
 163:Drivers/BSP/STM32746G-Discovery/stm32746g_discovery.c ****   return __STM32746G_DISCO_BSP_VERSION;
 164:Drivers/BSP/STM32746G-Discovery/stm32746g_discovery.c **** }
 165:Drivers/BSP/STM32746G-Discovery/stm32746g_discovery.c **** 
 166:Drivers/BSP/STM32746G-Discovery/stm32746g_discovery.c **** /**
 167:Drivers/BSP/STM32746G-Discovery/stm32746g_discovery.c ****   * @brief  Configures LED on GPIO.
 168:Drivers/BSP/STM32746G-Discovery/stm32746g_discovery.c ****   * @param  Led: LED to be configured. 
 169:Drivers/BSP/STM32746G-Discovery/stm32746g_discovery.c ****   *          This parameter can be one of the following values:
 170:Drivers/BSP/STM32746G-Discovery/stm32746g_discovery.c ****   *            @arg  LED1
 171:Drivers/BSP/STM32746G-Discovery/stm32746g_discovery.c ****   * @retval None
 172:Drivers/BSP/STM32746G-Discovery/stm32746g_discovery.c ****   */
 173:Drivers/BSP/STM32746G-Discovery/stm32746g_discovery.c **** void BSP_LED_Init(Led_TypeDef Led)
 174:Drivers/BSP/STM32746G-Discovery/stm32746g_discovery.c **** {
 175:Drivers/BSP/STM32746G-Discovery/stm32746g_discovery.c ****   GPIO_InitTypeDef  gpio_init_structure;
 176:Drivers/BSP/STM32746G-Discovery/stm32746g_discovery.c ****   GPIO_TypeDef*     gpio_led;
 177:Drivers/BSP/STM32746G-Discovery/stm32746g_discovery.c **** 
 178:Drivers/BSP/STM32746G-Discovery/stm32746g_discovery.c ****   if (Led == LED1)
 179:Drivers/BSP/STM32746G-Discovery/stm32746g_discovery.c ****   {
 180:Drivers/BSP/STM32746G-Discovery/stm32746g_discovery.c ****     gpio_led = LED1_GPIO_PORT;
 181:Drivers/BSP/STM32746G-Discovery/stm32746g_discovery.c ****     /* Enable the GPIO_LED clock */
 182:Drivers/BSP/STM32746G-Discovery/stm32746g_discovery.c ****     LED1_GPIO_CLK_ENABLE();
 183:Drivers/BSP/STM32746G-Discovery/stm32746g_discovery.c **** 
 184:Drivers/BSP/STM32746G-Discovery/stm32746g_discovery.c ****     /* Configure the GPIO_LED pin */
 185:Drivers/BSP/STM32746G-Discovery/stm32746g_discovery.c ****     gpio_init_structure.Pin = GPIO_PIN[Led];
 186:Drivers/BSP/STM32746G-Discovery/stm32746g_discovery.c ****     gpio_init_structure.Mode = GPIO_MODE_OUTPUT_PP;
 187:Drivers/BSP/STM32746G-Discovery/stm32746g_discovery.c ****     gpio_init_structure.Pull = GPIO_PULLUP;
 188:Drivers/BSP/STM32746G-Discovery/stm32746g_discovery.c ****     gpio_init_structure.Speed = GPIO_SPEED_HIGH;
 189:Drivers/BSP/STM32746G-Discovery/stm32746g_discovery.c ****   
 190:Drivers/BSP/STM32746G-Discovery/stm32746g_discovery.c ****     HAL_GPIO_Init(gpio_led, &gpio_init_structure);
 191:Drivers/BSP/STM32746G-Discovery/stm32746g_discovery.c ****     
 192:Drivers/BSP/STM32746G-Discovery/stm32746g_discovery.c ****     /* By default, turn off LED */
 193:Drivers/BSP/STM32746G-Discovery/stm32746g_discovery.c ****     HAL_GPIO_WritePin(gpio_led, GPIO_PIN[Led], GPIO_PIN_RESET);
 194:Drivers/BSP/STM32746G-Discovery/stm32746g_discovery.c ****   }
 195:Drivers/BSP/STM32746G-Discovery/stm32746g_discovery.c **** }
 196:Drivers/BSP/STM32746G-Discovery/stm32746g_discovery.c **** 
 197:Drivers/BSP/STM32746G-Discovery/stm32746g_discovery.c **** /**
 198:Drivers/BSP/STM32746G-Discovery/stm32746g_discovery.c ****   * @brief  DeInit LEDs.
 199:Drivers/BSP/STM32746G-Discovery/stm32746g_discovery.c ****   * @param  Led: LED to be configured. 
 200:Drivers/BSP/STM32746G-Discovery/stm32746g_discovery.c ****   *          This parameter can be one of the following values:
 201:Drivers/BSP/STM32746G-Discovery/stm32746g_discovery.c ****   *            @arg  LED1
ARM GAS  D:\cygwin64\tmp\ccVIozHZ.s 			page 5


 202:Drivers/BSP/STM32746G-Discovery/stm32746g_discovery.c ****   * @note Led DeInit does not disable the GPIO clock
 203:Drivers/BSP/STM32746G-Discovery/stm32746g_discovery.c ****   * @retval None
 204:Drivers/BSP/STM32746G-Discovery/stm32746g_discovery.c ****   */
 205:Drivers/BSP/STM32746G-Discovery/stm32746g_discovery.c **** void BSP_LED_DeInit(Led_TypeDef Led)
 206:Drivers/BSP/STM32746G-Discovery/stm32746g_discovery.c **** {
 207:Drivers/BSP/STM32746G-Discovery/stm32746g_discovery.c ****   GPIO_InitTypeDef  gpio_init_structure;
 208:Drivers/BSP/STM32746G-Discovery/stm32746g_discovery.c ****   GPIO_TypeDef*     gpio_led;
 209:Drivers/BSP/STM32746G-Discovery/stm32746g_discovery.c **** 
 210:Drivers/BSP/STM32746G-Discovery/stm32746g_discovery.c ****   if (Led == LED1)
 211:Drivers/BSP/STM32746G-Discovery/stm32746g_discovery.c ****   {
 212:Drivers/BSP/STM32746G-Discovery/stm32746g_discovery.c ****     gpio_led = LED1_GPIO_PORT;
 213:Drivers/BSP/STM32746G-Discovery/stm32746g_discovery.c ****     /* Turn off LED */
 214:Drivers/BSP/STM32746G-Discovery/stm32746g_discovery.c ****     HAL_GPIO_WritePin(gpio_led, GPIO_PIN[Led], GPIO_PIN_RESET);
 215:Drivers/BSP/STM32746G-Discovery/stm32746g_discovery.c ****     /* Configure the GPIO_LED pin */
 216:Drivers/BSP/STM32746G-Discovery/stm32746g_discovery.c ****     gpio_init_structure.Pin = GPIO_PIN[Led];
 217:Drivers/BSP/STM32746G-Discovery/stm32746g_discovery.c ****     HAL_GPIO_DeInit(gpio_led, gpio_init_structure.Pin);
 218:Drivers/BSP/STM32746G-Discovery/stm32746g_discovery.c ****   }
 219:Drivers/BSP/STM32746G-Discovery/stm32746g_discovery.c **** }
 220:Drivers/BSP/STM32746G-Discovery/stm32746g_discovery.c **** 
 221:Drivers/BSP/STM32746G-Discovery/stm32746g_discovery.c **** /**
 222:Drivers/BSP/STM32746G-Discovery/stm32746g_discovery.c ****   * @brief  Turns selected LED On.
 223:Drivers/BSP/STM32746G-Discovery/stm32746g_discovery.c ****   * @param  Led: LED to be set on 
 224:Drivers/BSP/STM32746G-Discovery/stm32746g_discovery.c ****   *          This parameter can be one of the following values:
 225:Drivers/BSP/STM32746G-Discovery/stm32746g_discovery.c ****   *            @arg  LED1
 226:Drivers/BSP/STM32746G-Discovery/stm32746g_discovery.c ****   * @retval None
 227:Drivers/BSP/STM32746G-Discovery/stm32746g_discovery.c ****   */
 228:Drivers/BSP/STM32746G-Discovery/stm32746g_discovery.c **** void BSP_LED_On(Led_TypeDef Led)
 229:Drivers/BSP/STM32746G-Discovery/stm32746g_discovery.c **** {
 230:Drivers/BSP/STM32746G-Discovery/stm32746g_discovery.c ****   GPIO_TypeDef*     gpio_led;
 231:Drivers/BSP/STM32746G-Discovery/stm32746g_discovery.c **** 
 232:Drivers/BSP/STM32746G-Discovery/stm32746g_discovery.c ****   if (Led == LED1)	/* Switch On LED connected to GPIO */
 233:Drivers/BSP/STM32746G-Discovery/stm32746g_discovery.c ****   {
 234:Drivers/BSP/STM32746G-Discovery/stm32746g_discovery.c ****     gpio_led = LED1_GPIO_PORT;
 235:Drivers/BSP/STM32746G-Discovery/stm32746g_discovery.c ****     HAL_GPIO_WritePin(gpio_led, GPIO_PIN[Led], GPIO_PIN_SET);
 236:Drivers/BSP/STM32746G-Discovery/stm32746g_discovery.c ****   }
 237:Drivers/BSP/STM32746G-Discovery/stm32746g_discovery.c **** }
 238:Drivers/BSP/STM32746G-Discovery/stm32746g_discovery.c **** 
 239:Drivers/BSP/STM32746G-Discovery/stm32746g_discovery.c **** /**
 240:Drivers/BSP/STM32746G-Discovery/stm32746g_discovery.c ****   * @brief  Turns selected LED Off. 
 241:Drivers/BSP/STM32746G-Discovery/stm32746g_discovery.c ****   * @param  Led: LED to be set off
 242:Drivers/BSP/STM32746G-Discovery/stm32746g_discovery.c ****   *          This parameter can be one of the following values:
 243:Drivers/BSP/STM32746G-Discovery/stm32746g_discovery.c ****   *            @arg  LED1
 244:Drivers/BSP/STM32746G-Discovery/stm32746g_discovery.c ****   * @retval None
 245:Drivers/BSP/STM32746G-Discovery/stm32746g_discovery.c ****   */
 246:Drivers/BSP/STM32746G-Discovery/stm32746g_discovery.c **** void BSP_LED_Off(Led_TypeDef Led)
 247:Drivers/BSP/STM32746G-Discovery/stm32746g_discovery.c **** {
 248:Drivers/BSP/STM32746G-Discovery/stm32746g_discovery.c ****   GPIO_TypeDef*     gpio_led;
 249:Drivers/BSP/STM32746G-Discovery/stm32746g_discovery.c **** 
 250:Drivers/BSP/STM32746G-Discovery/stm32746g_discovery.c ****   if (Led == LED1) /* Switch Off LED connected to GPIO */
 251:Drivers/BSP/STM32746G-Discovery/stm32746g_discovery.c ****   {
 252:Drivers/BSP/STM32746G-Discovery/stm32746g_discovery.c ****     gpio_led = LED1_GPIO_PORT;
 253:Drivers/BSP/STM32746G-Discovery/stm32746g_discovery.c ****     HAL_GPIO_WritePin(gpio_led, GPIO_PIN[Led], GPIO_PIN_RESET);
 254:Drivers/BSP/STM32746G-Discovery/stm32746g_discovery.c ****   }
 255:Drivers/BSP/STM32746G-Discovery/stm32746g_discovery.c **** }
 256:Drivers/BSP/STM32746G-Discovery/stm32746g_discovery.c **** 
 257:Drivers/BSP/STM32746G-Discovery/stm32746g_discovery.c **** /**
 258:Drivers/BSP/STM32746G-Discovery/stm32746g_discovery.c ****   * @brief  Toggles the selected LED.
ARM GAS  D:\cygwin64\tmp\ccVIozHZ.s 			page 6


 259:Drivers/BSP/STM32746G-Discovery/stm32746g_discovery.c ****   * @param  Led: LED to be toggled
 260:Drivers/BSP/STM32746G-Discovery/stm32746g_discovery.c ****   *          This parameter can be one of the following values:
 261:Drivers/BSP/STM32746G-Discovery/stm32746g_discovery.c ****   *            @arg  LED1
 262:Drivers/BSP/STM32746G-Discovery/stm32746g_discovery.c ****   * @retval None
 263:Drivers/BSP/STM32746G-Discovery/stm32746g_discovery.c ****   */
 264:Drivers/BSP/STM32746G-Discovery/stm32746g_discovery.c **** void BSP_LED_Toggle(Led_TypeDef Led)
 265:Drivers/BSP/STM32746G-Discovery/stm32746g_discovery.c **** {
 266:Drivers/BSP/STM32746G-Discovery/stm32746g_discovery.c ****   GPIO_TypeDef*     gpio_led;
 267:Drivers/BSP/STM32746G-Discovery/stm32746g_discovery.c **** 
 268:Drivers/BSP/STM32746G-Discovery/stm32746g_discovery.c ****   if (Led == LED1)	/* Toggle LED connected to GPIO */
 269:Drivers/BSP/STM32746G-Discovery/stm32746g_discovery.c ****   {
 270:Drivers/BSP/STM32746G-Discovery/stm32746g_discovery.c ****     gpio_led = LED1_GPIO_PORT;
 271:Drivers/BSP/STM32746G-Discovery/stm32746g_discovery.c ****     HAL_GPIO_TogglePin(gpio_led, GPIO_PIN[Led]);
 272:Drivers/BSP/STM32746G-Discovery/stm32746g_discovery.c ****   }
 273:Drivers/BSP/STM32746G-Discovery/stm32746g_discovery.c **** }
 274:Drivers/BSP/STM32746G-Discovery/stm32746g_discovery.c **** 
 275:Drivers/BSP/STM32746G-Discovery/stm32746g_discovery.c **** /**
 276:Drivers/BSP/STM32746G-Discovery/stm32746g_discovery.c ****   * @brief  Configures button GPIO and EXTI Line.
 277:Drivers/BSP/STM32746G-Discovery/stm32746g_discovery.c ****   * @param  Button: Button to be configured
 278:Drivers/BSP/STM32746G-Discovery/stm32746g_discovery.c ****   *          This parameter can be one of the following values:
 279:Drivers/BSP/STM32746G-Discovery/stm32746g_discovery.c ****   *            @arg  BUTTON_WAKEUP: Wakeup Push Button 
 280:Drivers/BSP/STM32746G-Discovery/stm32746g_discovery.c ****   *            @arg  BUTTON_TAMPER: Tamper Push Button  
 281:Drivers/BSP/STM32746G-Discovery/stm32746g_discovery.c ****   *            @arg  BUTTON_KEY: Key Push Button
 282:Drivers/BSP/STM32746G-Discovery/stm32746g_discovery.c ****   * @param  ButtonMode: Button mode
 283:Drivers/BSP/STM32746G-Discovery/stm32746g_discovery.c ****   *          This parameter can be one of the following values:
 284:Drivers/BSP/STM32746G-Discovery/stm32746g_discovery.c ****   *            @arg  BUTTON_MODE_GPIO: Button will be used as simple IO
 285:Drivers/BSP/STM32746G-Discovery/stm32746g_discovery.c ****   *            @arg  BUTTON_MODE_EXTI: Button will be connected to EXTI line 
 286:Drivers/BSP/STM32746G-Discovery/stm32746g_discovery.c ****   *                                    with interrupt generation capability
 287:Drivers/BSP/STM32746G-Discovery/stm32746g_discovery.c ****   * @note On STM32746G-Discovery board, the three buttons (Wakeup, Tamper and key buttons)
 288:Drivers/BSP/STM32746G-Discovery/stm32746g_discovery.c ****   *       are mapped on the same push button named "User"
 289:Drivers/BSP/STM32746G-Discovery/stm32746g_discovery.c ****   *       on the board serigraphy.
 290:Drivers/BSP/STM32746G-Discovery/stm32746g_discovery.c ****   * @retval None
 291:Drivers/BSP/STM32746G-Discovery/stm32746g_discovery.c ****   */
 292:Drivers/BSP/STM32746G-Discovery/stm32746g_discovery.c **** void BSP_PB_Init(Button_TypeDef Button, ButtonMode_TypeDef ButtonMode)
 293:Drivers/BSP/STM32746G-Discovery/stm32746g_discovery.c **** {
 294:Drivers/BSP/STM32746G-Discovery/stm32746g_discovery.c ****   GPIO_InitTypeDef gpio_init_structure;
 295:Drivers/BSP/STM32746G-Discovery/stm32746g_discovery.c ****   
 296:Drivers/BSP/STM32746G-Discovery/stm32746g_discovery.c ****   /* Enable the BUTTON clock */
 297:Drivers/BSP/STM32746G-Discovery/stm32746g_discovery.c ****   BUTTONx_GPIO_CLK_ENABLE(Button);
 298:Drivers/BSP/STM32746G-Discovery/stm32746g_discovery.c ****   
 299:Drivers/BSP/STM32746G-Discovery/stm32746g_discovery.c ****   if(ButtonMode == BUTTON_MODE_GPIO)
 300:Drivers/BSP/STM32746G-Discovery/stm32746g_discovery.c ****   {
 301:Drivers/BSP/STM32746G-Discovery/stm32746g_discovery.c ****     /* Configure Button pin as input */
 302:Drivers/BSP/STM32746G-Discovery/stm32746g_discovery.c ****     gpio_init_structure.Pin = BUTTON_PIN[Button];
 303:Drivers/BSP/STM32746G-Discovery/stm32746g_discovery.c ****     gpio_init_structure.Mode = GPIO_MODE_INPUT;
 304:Drivers/BSP/STM32746G-Discovery/stm32746g_discovery.c ****     gpio_init_structure.Pull = GPIO_NOPULL;
 305:Drivers/BSP/STM32746G-Discovery/stm32746g_discovery.c ****     gpio_init_structure.Speed = GPIO_SPEED_FAST;
 306:Drivers/BSP/STM32746G-Discovery/stm32746g_discovery.c ****     HAL_GPIO_Init(BUTTON_PORT[Button], &gpio_init_structure);
 307:Drivers/BSP/STM32746G-Discovery/stm32746g_discovery.c ****   }
 308:Drivers/BSP/STM32746G-Discovery/stm32746g_discovery.c ****   
 309:Drivers/BSP/STM32746G-Discovery/stm32746g_discovery.c ****   if(ButtonMode == BUTTON_MODE_EXTI)
 310:Drivers/BSP/STM32746G-Discovery/stm32746g_discovery.c ****   {
 311:Drivers/BSP/STM32746G-Discovery/stm32746g_discovery.c ****     /* Configure Button pin as input with External interrupt */
 312:Drivers/BSP/STM32746G-Discovery/stm32746g_discovery.c ****     gpio_init_structure.Pin = BUTTON_PIN[Button];
 313:Drivers/BSP/STM32746G-Discovery/stm32746g_discovery.c ****     gpio_init_structure.Pull = GPIO_NOPULL;
 314:Drivers/BSP/STM32746G-Discovery/stm32746g_discovery.c ****     gpio_init_structure.Speed = GPIO_SPEED_FAST;
 315:Drivers/BSP/STM32746G-Discovery/stm32746g_discovery.c ****     
ARM GAS  D:\cygwin64\tmp\ccVIozHZ.s 			page 7


 316:Drivers/BSP/STM32746G-Discovery/stm32746g_discovery.c ****     if(Button != BUTTON_WAKEUP)
 317:Drivers/BSP/STM32746G-Discovery/stm32746g_discovery.c ****     {
 318:Drivers/BSP/STM32746G-Discovery/stm32746g_discovery.c ****       gpio_init_structure.Mode = GPIO_MODE_IT_FALLING; 
 319:Drivers/BSP/STM32746G-Discovery/stm32746g_discovery.c ****     }
 320:Drivers/BSP/STM32746G-Discovery/stm32746g_discovery.c ****     else
 321:Drivers/BSP/STM32746G-Discovery/stm32746g_discovery.c ****     {
 322:Drivers/BSP/STM32746G-Discovery/stm32746g_discovery.c ****       gpio_init_structure.Mode = GPIO_MODE_IT_RISING;
 323:Drivers/BSP/STM32746G-Discovery/stm32746g_discovery.c ****     }
 324:Drivers/BSP/STM32746G-Discovery/stm32746g_discovery.c ****     
 325:Drivers/BSP/STM32746G-Discovery/stm32746g_discovery.c ****     HAL_GPIO_Init(BUTTON_PORT[Button], &gpio_init_structure);
 326:Drivers/BSP/STM32746G-Discovery/stm32746g_discovery.c ****     
 327:Drivers/BSP/STM32746G-Discovery/stm32746g_discovery.c ****     /* Enable and set Button EXTI Interrupt to the lowest priority */
 328:Drivers/BSP/STM32746G-Discovery/stm32746g_discovery.c ****     HAL_NVIC_SetPriority((IRQn_Type)(BUTTON_IRQn[Button]), 0x0F, 0x00);
 329:Drivers/BSP/STM32746G-Discovery/stm32746g_discovery.c ****     HAL_NVIC_EnableIRQ((IRQn_Type)(BUTTON_IRQn[Button]));
 330:Drivers/BSP/STM32746G-Discovery/stm32746g_discovery.c ****   }
 331:Drivers/BSP/STM32746G-Discovery/stm32746g_discovery.c **** }
 332:Drivers/BSP/STM32746G-Discovery/stm32746g_discovery.c **** 
 333:Drivers/BSP/STM32746G-Discovery/stm32746g_discovery.c **** /**
 334:Drivers/BSP/STM32746G-Discovery/stm32746g_discovery.c ****   * @brief  Push Button DeInit.
 335:Drivers/BSP/STM32746G-Discovery/stm32746g_discovery.c ****   * @param  Button: Button to be configured
 336:Drivers/BSP/STM32746G-Discovery/stm32746g_discovery.c ****   *          This parameter can be one of the following values:
 337:Drivers/BSP/STM32746G-Discovery/stm32746g_discovery.c ****   *            @arg  BUTTON_WAKEUP: Wakeup Push Button 
 338:Drivers/BSP/STM32746G-Discovery/stm32746g_discovery.c ****   *            @arg  BUTTON_TAMPER: Tamper Push Button  
 339:Drivers/BSP/STM32746G-Discovery/stm32746g_discovery.c ****   *            @arg  BUTTON_KEY: Key Push Button
 340:Drivers/BSP/STM32746G-Discovery/stm32746g_discovery.c ****   * @note On STM32746G-Discovery board, the three buttons (Wakeup, Tamper and key buttons) 
 341:Drivers/BSP/STM32746G-Discovery/stm32746g_discovery.c ****   *       are mapped on the same push button named "User"
 342:Drivers/BSP/STM32746G-Discovery/stm32746g_discovery.c ****   *       on the board serigraphy.
 343:Drivers/BSP/STM32746G-Discovery/stm32746g_discovery.c ****   * @note PB DeInit does not disable the GPIO clock
 344:Drivers/BSP/STM32746G-Discovery/stm32746g_discovery.c ****   * @retval None
 345:Drivers/BSP/STM32746G-Discovery/stm32746g_discovery.c ****   */
 346:Drivers/BSP/STM32746G-Discovery/stm32746g_discovery.c **** void BSP_PB_DeInit(Button_TypeDef Button)
 347:Drivers/BSP/STM32746G-Discovery/stm32746g_discovery.c **** {
 348:Drivers/BSP/STM32746G-Discovery/stm32746g_discovery.c ****     GPIO_InitTypeDef gpio_init_structure;
 349:Drivers/BSP/STM32746G-Discovery/stm32746g_discovery.c **** 
 350:Drivers/BSP/STM32746G-Discovery/stm32746g_discovery.c ****     gpio_init_structure.Pin = BUTTON_PIN[Button];
 351:Drivers/BSP/STM32746G-Discovery/stm32746g_discovery.c ****     HAL_NVIC_DisableIRQ((IRQn_Type)(BUTTON_IRQn[Button]));
 352:Drivers/BSP/STM32746G-Discovery/stm32746g_discovery.c ****     HAL_GPIO_DeInit(BUTTON_PORT[Button], gpio_init_structure.Pin);
 353:Drivers/BSP/STM32746G-Discovery/stm32746g_discovery.c **** }
 354:Drivers/BSP/STM32746G-Discovery/stm32746g_discovery.c **** 
 355:Drivers/BSP/STM32746G-Discovery/stm32746g_discovery.c **** 
 356:Drivers/BSP/STM32746G-Discovery/stm32746g_discovery.c **** /**
 357:Drivers/BSP/STM32746G-Discovery/stm32746g_discovery.c ****   * @brief  Returns the selected button state.
 358:Drivers/BSP/STM32746G-Discovery/stm32746g_discovery.c ****   * @param  Button: Button to be checked
 359:Drivers/BSP/STM32746G-Discovery/stm32746g_discovery.c ****   *          This parameter can be one of the following values:
 360:Drivers/BSP/STM32746G-Discovery/stm32746g_discovery.c ****   *            @arg  BUTTON_WAKEUP: Wakeup Push Button 
 361:Drivers/BSP/STM32746G-Discovery/stm32746g_discovery.c ****   *            @arg  BUTTON_TAMPER: Tamper Push Button 
 362:Drivers/BSP/STM32746G-Discovery/stm32746g_discovery.c ****   *            @arg  BUTTON_KEY: Key Push Button
 363:Drivers/BSP/STM32746G-Discovery/stm32746g_discovery.c ****   * @note On STM32746G-Discovery board, the three buttons (Wakeup, Tamper and key buttons) 
 364:Drivers/BSP/STM32746G-Discovery/stm32746g_discovery.c ****   *       are mapped on the same push button named "User"
 365:Drivers/BSP/STM32746G-Discovery/stm32746g_discovery.c ****   *       on the board serigraphy.
 366:Drivers/BSP/STM32746G-Discovery/stm32746g_discovery.c ****   * @retval The Button GPIO pin value
 367:Drivers/BSP/STM32746G-Discovery/stm32746g_discovery.c ****   */
 368:Drivers/BSP/STM32746G-Discovery/stm32746g_discovery.c **** uint32_t BSP_PB_GetState(Button_TypeDef Button)
 369:Drivers/BSP/STM32746G-Discovery/stm32746g_discovery.c **** {
 370:Drivers/BSP/STM32746G-Discovery/stm32746g_discovery.c ****   return HAL_GPIO_ReadPin(BUTTON_PORT[Button], BUTTON_PIN[Button]);
 371:Drivers/BSP/STM32746G-Discovery/stm32746g_discovery.c **** }
 372:Drivers/BSP/STM32746G-Discovery/stm32746g_discovery.c **** 
ARM GAS  D:\cygwin64\tmp\ccVIozHZ.s 			page 8


 373:Drivers/BSP/STM32746G-Discovery/stm32746g_discovery.c **** /**
 374:Drivers/BSP/STM32746G-Discovery/stm32746g_discovery.c ****   * @brief  Configures COM port.
 375:Drivers/BSP/STM32746G-Discovery/stm32746g_discovery.c ****   * @param  COM: COM port to be configured.
 376:Drivers/BSP/STM32746G-Discovery/stm32746g_discovery.c ****   *          This parameter can be one of the following values:
 377:Drivers/BSP/STM32746G-Discovery/stm32746g_discovery.c ****   *            @arg  COM1 
 378:Drivers/BSP/STM32746G-Discovery/stm32746g_discovery.c ****   *            @arg  COM2 
 379:Drivers/BSP/STM32746G-Discovery/stm32746g_discovery.c ****   * @param  huart: Pointer to a UART_HandleTypeDef structure that contains the
 380:Drivers/BSP/STM32746G-Discovery/stm32746g_discovery.c ****   *                configuration information for the specified USART peripheral.
 381:Drivers/BSP/STM32746G-Discovery/stm32746g_discovery.c ****   * @retval None
 382:Drivers/BSP/STM32746G-Discovery/stm32746g_discovery.c ****   */
 383:Drivers/BSP/STM32746G-Discovery/stm32746g_discovery.c **** void BSP_COM_Init(COM_TypeDef COM, UART_HandleTypeDef *huart)
 384:Drivers/BSP/STM32746G-Discovery/stm32746g_discovery.c **** {
 385:Drivers/BSP/STM32746G-Discovery/stm32746g_discovery.c ****   GPIO_InitTypeDef gpio_init_structure;
 386:Drivers/BSP/STM32746G-Discovery/stm32746g_discovery.c **** 
 387:Drivers/BSP/STM32746G-Discovery/stm32746g_discovery.c ****   /* Enable GPIO clock */
 388:Drivers/BSP/STM32746G-Discovery/stm32746g_discovery.c ****   DISCOVERY_COMx_TX_GPIO_CLK_ENABLE(COM);
 389:Drivers/BSP/STM32746G-Discovery/stm32746g_discovery.c ****   DISCOVERY_COMx_RX_GPIO_CLK_ENABLE(COM);
 390:Drivers/BSP/STM32746G-Discovery/stm32746g_discovery.c **** 
 391:Drivers/BSP/STM32746G-Discovery/stm32746g_discovery.c ****   /* Enable USART clock */
 392:Drivers/BSP/STM32746G-Discovery/stm32746g_discovery.c ****   DISCOVERY_COMx_CLK_ENABLE(COM);
 393:Drivers/BSP/STM32746G-Discovery/stm32746g_discovery.c **** 
 394:Drivers/BSP/STM32746G-Discovery/stm32746g_discovery.c ****   /* Configure USART Tx as alternate function */
 395:Drivers/BSP/STM32746G-Discovery/stm32746g_discovery.c ****   gpio_init_structure.Pin = COM_TX_PIN[COM];
 396:Drivers/BSP/STM32746G-Discovery/stm32746g_discovery.c ****   gpio_init_structure.Mode = GPIO_MODE_AF_PP;
 397:Drivers/BSP/STM32746G-Discovery/stm32746g_discovery.c ****   gpio_init_structure.Speed = GPIO_SPEED_FAST;
 398:Drivers/BSP/STM32746G-Discovery/stm32746g_discovery.c ****   gpio_init_structure.Pull = GPIO_PULLUP;
 399:Drivers/BSP/STM32746G-Discovery/stm32746g_discovery.c ****   gpio_init_structure.Alternate = COM_TX_AF[COM];
 400:Drivers/BSP/STM32746G-Discovery/stm32746g_discovery.c ****   HAL_GPIO_Init(COM_TX_PORT[COM], &gpio_init_structure);
 401:Drivers/BSP/STM32746G-Discovery/stm32746g_discovery.c **** 
 402:Drivers/BSP/STM32746G-Discovery/stm32746g_discovery.c ****   /* Configure USART Rx as alternate function */
 403:Drivers/BSP/STM32746G-Discovery/stm32746g_discovery.c ****   gpio_init_structure.Pin = COM_RX_PIN[COM];
 404:Drivers/BSP/STM32746G-Discovery/stm32746g_discovery.c ****   gpio_init_structure.Mode = GPIO_MODE_AF_PP;
 405:Drivers/BSP/STM32746G-Discovery/stm32746g_discovery.c ****   gpio_init_structure.Alternate = COM_RX_AF[COM];
 406:Drivers/BSP/STM32746G-Discovery/stm32746g_discovery.c ****   HAL_GPIO_Init(COM_RX_PORT[COM], &gpio_init_structure);
 407:Drivers/BSP/STM32746G-Discovery/stm32746g_discovery.c **** 
 408:Drivers/BSP/STM32746G-Discovery/stm32746g_discovery.c ****   /* USART configuration */
 409:Drivers/BSP/STM32746G-Discovery/stm32746g_discovery.c ****   huart->Instance = COM_USART[COM];
 410:Drivers/BSP/STM32746G-Discovery/stm32746g_discovery.c ****   HAL_UART_Init(huart);
 411:Drivers/BSP/STM32746G-Discovery/stm32746g_discovery.c **** }
 412:Drivers/BSP/STM32746G-Discovery/stm32746g_discovery.c **** 
 413:Drivers/BSP/STM32746G-Discovery/stm32746g_discovery.c **** /**
 414:Drivers/BSP/STM32746G-Discovery/stm32746g_discovery.c ****   * @brief  DeInit COM port.
 415:Drivers/BSP/STM32746G-Discovery/stm32746g_discovery.c ****   * @param  COM: COM port to be configured.
 416:Drivers/BSP/STM32746G-Discovery/stm32746g_discovery.c ****   *          This parameter can be one of the following values:
 417:Drivers/BSP/STM32746G-Discovery/stm32746g_discovery.c ****   *            @arg  COM1 
 418:Drivers/BSP/STM32746G-Discovery/stm32746g_discovery.c ****   *            @arg  COM2 
 419:Drivers/BSP/STM32746G-Discovery/stm32746g_discovery.c ****   * @param  huart: Pointer to a UART_HandleTypeDef structure that contains the
 420:Drivers/BSP/STM32746G-Discovery/stm32746g_discovery.c ****   *                configuration information for the specified USART peripheral.
 421:Drivers/BSP/STM32746G-Discovery/stm32746g_discovery.c ****   * @retval None
 422:Drivers/BSP/STM32746G-Discovery/stm32746g_discovery.c ****   */
 423:Drivers/BSP/STM32746G-Discovery/stm32746g_discovery.c **** void BSP_COM_DeInit(COM_TypeDef COM, UART_HandleTypeDef *huart)
 424:Drivers/BSP/STM32746G-Discovery/stm32746g_discovery.c **** {
 425:Drivers/BSP/STM32746G-Discovery/stm32746g_discovery.c ****   /* USART configuration */
 426:Drivers/BSP/STM32746G-Discovery/stm32746g_discovery.c ****   huart->Instance = COM_USART[COM];
 427:Drivers/BSP/STM32746G-Discovery/stm32746g_discovery.c ****   HAL_UART_DeInit(huart);
 428:Drivers/BSP/STM32746G-Discovery/stm32746g_discovery.c **** 
 429:Drivers/BSP/STM32746G-Discovery/stm32746g_discovery.c ****   /* Enable USART clock */
ARM GAS  D:\cygwin64\tmp\ccVIozHZ.s 			page 9


 430:Drivers/BSP/STM32746G-Discovery/stm32746g_discovery.c ****   DISCOVERY_COMx_CLK_DISABLE(COM);
 431:Drivers/BSP/STM32746G-Discovery/stm32746g_discovery.c **** 
 432:Drivers/BSP/STM32746G-Discovery/stm32746g_discovery.c ****   /* DeInit GPIO pins can be done in the application 
 433:Drivers/BSP/STM32746G-Discovery/stm32746g_discovery.c ****      (by surcharging this __weak function) */
 434:Drivers/BSP/STM32746G-Discovery/stm32746g_discovery.c **** 
 435:Drivers/BSP/STM32746G-Discovery/stm32746g_discovery.c ****   /* GPIO pins clock, DMA clock can be shut down in the application 
 436:Drivers/BSP/STM32746G-Discovery/stm32746g_discovery.c ****      by surcharging this __weak function */
 437:Drivers/BSP/STM32746G-Discovery/stm32746g_discovery.c **** }
 438:Drivers/BSP/STM32746G-Discovery/stm32746g_discovery.c **** 
 439:Drivers/BSP/STM32746G-Discovery/stm32746g_discovery.c **** /*******************************************************************************
 440:Drivers/BSP/STM32746G-Discovery/stm32746g_discovery.c ****                             BUS OPERATIONS
 441:Drivers/BSP/STM32746G-Discovery/stm32746g_discovery.c **** *******************************************************************************/
 442:Drivers/BSP/STM32746G-Discovery/stm32746g_discovery.c **** 
 443:Drivers/BSP/STM32746G-Discovery/stm32746g_discovery.c **** /******************************* I2C Routines *********************************/
 444:Drivers/BSP/STM32746G-Discovery/stm32746g_discovery.c **** /**
 445:Drivers/BSP/STM32746G-Discovery/stm32746g_discovery.c ****   * @brief  Initializes I2C MSP.
 446:Drivers/BSP/STM32746G-Discovery/stm32746g_discovery.c ****   * @param  i2c_handler : I2C handler
 447:Drivers/BSP/STM32746G-Discovery/stm32746g_discovery.c ****   * @retval None
 448:Drivers/BSP/STM32746G-Discovery/stm32746g_discovery.c ****   */
 449:Drivers/BSP/STM32746G-Discovery/stm32746g_discovery.c **** static void I2Cx_MspInit(I2C_HandleTypeDef *i2c_handler)
 450:Drivers/BSP/STM32746G-Discovery/stm32746g_discovery.c **** {
  29              		.loc 1 450 1 view -0
  30              		.cfi_startproc
  31              		@ args = 0, pretend = 0, frame = 40
  32              		@ frame_needed = 0, uses_anonymous_args = 0
  33              		.loc 1 450 1 is_stmt 0 view .LVU1
  34 0000 70B5     		push	{r4, r5, r6, lr}
  35              	.LCFI0:
  36              		.cfi_def_cfa_offset 16
  37              		.cfi_offset 4, -16
  38              		.cfi_offset 5, -12
  39              		.cfi_offset 6, -8
  40              		.cfi_offset 14, -4
  41 0002 8AB0     		sub	sp, sp, #40
  42              	.LCFI1:
  43              		.cfi_def_cfa_offset 56
 451:Drivers/BSP/STM32746G-Discovery/stm32746g_discovery.c ****   GPIO_InitTypeDef  gpio_init_structure;
  44              		.loc 1 451 3 is_stmt 1 view .LVU2
 452:Drivers/BSP/STM32746G-Discovery/stm32746g_discovery.c ****   
 453:Drivers/BSP/STM32746G-Discovery/stm32746g_discovery.c ****   if (i2c_handler == (I2C_HandleTypeDef*)(&hI2cAudioHandler))
  45              		.loc 1 453 3 view .LVU3
  46              		.loc 1 453 6 is_stmt 0 view .LVU4
  47 0004 444B     		ldr	r3, .L6
  48 0006 8342     		cmp	r3, r0
  49 0008 43D0     		beq	.L5
 454:Drivers/BSP/STM32746G-Discovery/stm32746g_discovery.c ****   {
 455:Drivers/BSP/STM32746G-Discovery/stm32746g_discovery.c ****     /* AUDIO and LCD I2C MSP init */
 456:Drivers/BSP/STM32746G-Discovery/stm32746g_discovery.c **** 
 457:Drivers/BSP/STM32746G-Discovery/stm32746g_discovery.c ****     /*** Configure the GPIOs ***/
 458:Drivers/BSP/STM32746G-Discovery/stm32746g_discovery.c ****     /* Enable GPIO clock */
 459:Drivers/BSP/STM32746G-Discovery/stm32746g_discovery.c ****     DISCOVERY_AUDIO_I2Cx_SCL_SDA_GPIO_CLK_ENABLE();
 460:Drivers/BSP/STM32746G-Discovery/stm32746g_discovery.c **** 
 461:Drivers/BSP/STM32746G-Discovery/stm32746g_discovery.c ****     /* Configure I2C Tx as alternate function */
 462:Drivers/BSP/STM32746G-Discovery/stm32746g_discovery.c ****     gpio_init_structure.Pin = DISCOVERY_AUDIO_I2Cx_SCL_PIN;
 463:Drivers/BSP/STM32746G-Discovery/stm32746g_discovery.c ****     gpio_init_structure.Mode = GPIO_MODE_AF_OD;
 464:Drivers/BSP/STM32746G-Discovery/stm32746g_discovery.c ****     gpio_init_structure.Pull = GPIO_NOPULL;
 465:Drivers/BSP/STM32746G-Discovery/stm32746g_discovery.c ****     gpio_init_structure.Speed = GPIO_SPEED_FAST;
ARM GAS  D:\cygwin64\tmp\ccVIozHZ.s 			page 10


 466:Drivers/BSP/STM32746G-Discovery/stm32746g_discovery.c ****     gpio_init_structure.Alternate = DISCOVERY_AUDIO_I2Cx_SCL_SDA_AF;
 467:Drivers/BSP/STM32746G-Discovery/stm32746g_discovery.c ****     HAL_GPIO_Init(DISCOVERY_AUDIO_I2Cx_SCL_SDA_GPIO_PORT, &gpio_init_structure);
 468:Drivers/BSP/STM32746G-Discovery/stm32746g_discovery.c **** 
 469:Drivers/BSP/STM32746G-Discovery/stm32746g_discovery.c ****     /* Configure I2C Rx as alternate function */
 470:Drivers/BSP/STM32746G-Discovery/stm32746g_discovery.c ****     gpio_init_structure.Pin = DISCOVERY_AUDIO_I2Cx_SDA_PIN;
 471:Drivers/BSP/STM32746G-Discovery/stm32746g_discovery.c ****     HAL_GPIO_Init(DISCOVERY_AUDIO_I2Cx_SCL_SDA_GPIO_PORT, &gpio_init_structure);
 472:Drivers/BSP/STM32746G-Discovery/stm32746g_discovery.c **** 
 473:Drivers/BSP/STM32746G-Discovery/stm32746g_discovery.c ****     /*** Configure the I2C peripheral ***/
 474:Drivers/BSP/STM32746G-Discovery/stm32746g_discovery.c ****     /* Enable I2C clock */
 475:Drivers/BSP/STM32746G-Discovery/stm32746g_discovery.c ****     DISCOVERY_AUDIO_I2Cx_CLK_ENABLE();
 476:Drivers/BSP/STM32746G-Discovery/stm32746g_discovery.c **** 
 477:Drivers/BSP/STM32746G-Discovery/stm32746g_discovery.c ****     /* Force the I2C peripheral clock reset */
 478:Drivers/BSP/STM32746G-Discovery/stm32746g_discovery.c ****     DISCOVERY_AUDIO_I2Cx_FORCE_RESET();
 479:Drivers/BSP/STM32746G-Discovery/stm32746g_discovery.c **** 
 480:Drivers/BSP/STM32746G-Discovery/stm32746g_discovery.c ****     /* Release the I2C peripheral clock reset */
 481:Drivers/BSP/STM32746G-Discovery/stm32746g_discovery.c ****     DISCOVERY_AUDIO_I2Cx_RELEASE_RESET();
 482:Drivers/BSP/STM32746G-Discovery/stm32746g_discovery.c **** 
 483:Drivers/BSP/STM32746G-Discovery/stm32746g_discovery.c ****     /* Enable and set I2Cx Interrupt to a lower priority */
 484:Drivers/BSP/STM32746G-Discovery/stm32746g_discovery.c ****     HAL_NVIC_SetPriority(DISCOVERY_AUDIO_I2Cx_EV_IRQn, 0x0F, 0);
 485:Drivers/BSP/STM32746G-Discovery/stm32746g_discovery.c ****     HAL_NVIC_EnableIRQ(DISCOVERY_AUDIO_I2Cx_EV_IRQn);
 486:Drivers/BSP/STM32746G-Discovery/stm32746g_discovery.c **** 
 487:Drivers/BSP/STM32746G-Discovery/stm32746g_discovery.c ****     /* Enable and set I2Cx Interrupt to a lower priority */
 488:Drivers/BSP/STM32746G-Discovery/stm32746g_discovery.c ****     HAL_NVIC_SetPriority(DISCOVERY_AUDIO_I2Cx_ER_IRQn, 0x0F, 0);
 489:Drivers/BSP/STM32746G-Discovery/stm32746g_discovery.c ****     HAL_NVIC_EnableIRQ(DISCOVERY_AUDIO_I2Cx_ER_IRQn);
 490:Drivers/BSP/STM32746G-Discovery/stm32746g_discovery.c ****   }
 491:Drivers/BSP/STM32746G-Discovery/stm32746g_discovery.c ****   else
 492:Drivers/BSP/STM32746G-Discovery/stm32746g_discovery.c ****   {
 493:Drivers/BSP/STM32746G-Discovery/stm32746g_discovery.c ****     /* External, camera and Arduino connector I2C MSP init */
 494:Drivers/BSP/STM32746G-Discovery/stm32746g_discovery.c **** 
 495:Drivers/BSP/STM32746G-Discovery/stm32746g_discovery.c ****     /*** Configure the GPIOs ***/
 496:Drivers/BSP/STM32746G-Discovery/stm32746g_discovery.c ****     /* Enable GPIO clock */
 497:Drivers/BSP/STM32746G-Discovery/stm32746g_discovery.c ****     DISCOVERY_EXT_I2Cx_SCL_SDA_GPIO_CLK_ENABLE();
  50              		.loc 1 497 5 is_stmt 1 view .LVU5
  51              	.LBB2:
  52              		.loc 1 497 5 view .LVU6
  53              		.loc 1 497 5 view .LVU7
  54 000a 444C     		ldr	r4, .L6+4
  55 000c 236B     		ldr	r3, [r4, #48]
  56 000e 43F00203 		orr	r3, r3, #2
  57 0012 2363     		str	r3, [r4, #48]
  58              		.loc 1 497 5 view .LVU8
  59 0014 236B     		ldr	r3, [r4, #48]
  60 0016 03F00203 		and	r3, r3, #2
  61 001a 0393     		str	r3, [sp, #12]
  62              		.loc 1 497 5 view .LVU9
  63 001c 039B     		ldr	r3, [sp, #12]
  64              	.LBE2:
  65              		.loc 1 497 5 view .LVU10
 498:Drivers/BSP/STM32746G-Discovery/stm32746g_discovery.c **** 
 499:Drivers/BSP/STM32746G-Discovery/stm32746g_discovery.c ****     /* Configure I2C Tx as alternate function */
 500:Drivers/BSP/STM32746G-Discovery/stm32746g_discovery.c ****     gpio_init_structure.Pin = DISCOVERY_EXT_I2Cx_SCL_PIN;
  66              		.loc 1 500 5 view .LVU11
  67              		.loc 1 500 29 is_stmt 0 view .LVU12
  68 001e 4FF48073 		mov	r3, #256
  69 0022 0593     		str	r3, [sp, #20]
 501:Drivers/BSP/STM32746G-Discovery/stm32746g_discovery.c ****     gpio_init_structure.Mode = GPIO_MODE_AF_OD;
  70              		.loc 1 501 5 is_stmt 1 view .LVU13
ARM GAS  D:\cygwin64\tmp\ccVIozHZ.s 			page 11


  71              		.loc 1 501 30 is_stmt 0 view .LVU14
  72 0024 1223     		movs	r3, #18
  73 0026 0693     		str	r3, [sp, #24]
 502:Drivers/BSP/STM32746G-Discovery/stm32746g_discovery.c ****     gpio_init_structure.Pull = GPIO_NOPULL;
  74              		.loc 1 502 5 is_stmt 1 view .LVU15
  75              		.loc 1 502 30 is_stmt 0 view .LVU16
  76 0028 0025     		movs	r5, #0
  77 002a 0795     		str	r5, [sp, #28]
 503:Drivers/BSP/STM32746G-Discovery/stm32746g_discovery.c ****     gpio_init_structure.Speed = GPIO_SPEED_FAST;
  78              		.loc 1 503 5 is_stmt 1 view .LVU17
  79              		.loc 1 503 31 is_stmt 0 view .LVU18
  80 002c 0223     		movs	r3, #2
  81 002e 0893     		str	r3, [sp, #32]
 504:Drivers/BSP/STM32746G-Discovery/stm32746g_discovery.c ****     gpio_init_structure.Alternate = DISCOVERY_EXT_I2Cx_SCL_SDA_AF;
  82              		.loc 1 504 5 is_stmt 1 view .LVU19
  83              		.loc 1 504 35 is_stmt 0 view .LVU20
  84 0030 0423     		movs	r3, #4
  85 0032 0993     		str	r3, [sp, #36]
 505:Drivers/BSP/STM32746G-Discovery/stm32746g_discovery.c ****     HAL_GPIO_Init(DISCOVERY_EXT_I2Cx_SCL_SDA_GPIO_PORT, &gpio_init_structure);
  86              		.loc 1 505 5 is_stmt 1 view .LVU21
  87 0034 3A4E     		ldr	r6, .L6+8
  88 0036 05A9     		add	r1, sp, #20
  89 0038 3046     		mov	r0, r6
  90              	.LVL1:
  91              		.loc 1 505 5 is_stmt 0 view .LVU22
  92 003a FFF7FEFF 		bl	HAL_GPIO_Init
  93              	.LVL2:
 506:Drivers/BSP/STM32746G-Discovery/stm32746g_discovery.c **** 
 507:Drivers/BSP/STM32746G-Discovery/stm32746g_discovery.c ****     /* Configure I2C Rx as alternate function */
 508:Drivers/BSP/STM32746G-Discovery/stm32746g_discovery.c ****     gpio_init_structure.Pin = DISCOVERY_EXT_I2Cx_SDA_PIN;
  94              		.loc 1 508 5 is_stmt 1 view .LVU23
  95              		.loc 1 508 29 is_stmt 0 view .LVU24
  96 003e 4FF40073 		mov	r3, #512
  97 0042 0593     		str	r3, [sp, #20]
 509:Drivers/BSP/STM32746G-Discovery/stm32746g_discovery.c ****     HAL_GPIO_Init(DISCOVERY_EXT_I2Cx_SCL_SDA_GPIO_PORT, &gpio_init_structure);
  98              		.loc 1 509 5 is_stmt 1 view .LVU25
  99 0044 05A9     		add	r1, sp, #20
 100 0046 3046     		mov	r0, r6
 101 0048 FFF7FEFF 		bl	HAL_GPIO_Init
 102              	.LVL3:
 510:Drivers/BSP/STM32746G-Discovery/stm32746g_discovery.c **** 
 511:Drivers/BSP/STM32746G-Discovery/stm32746g_discovery.c ****     /*** Configure the I2C peripheral ***/
 512:Drivers/BSP/STM32746G-Discovery/stm32746g_discovery.c ****     /* Enable I2C clock */
 513:Drivers/BSP/STM32746G-Discovery/stm32746g_discovery.c ****     DISCOVERY_EXT_I2Cx_CLK_ENABLE();
 103              		.loc 1 513 5 view .LVU26
 104              	.LBB3:
 105              		.loc 1 513 5 view .LVU27
 106              		.loc 1 513 5 view .LVU28
 107 004c 236C     		ldr	r3, [r4, #64]
 108 004e 43F40013 		orr	r3, r3, #2097152
 109 0052 2364     		str	r3, [r4, #64]
 110              		.loc 1 513 5 view .LVU29
 111 0054 236C     		ldr	r3, [r4, #64]
 112 0056 03F40013 		and	r3, r3, #2097152
 113 005a 0493     		str	r3, [sp, #16]
 114              		.loc 1 513 5 view .LVU30
 115 005c 049B     		ldr	r3, [sp, #16]
ARM GAS  D:\cygwin64\tmp\ccVIozHZ.s 			page 12


 116              	.LBE3:
 117              		.loc 1 513 5 view .LVU31
 514:Drivers/BSP/STM32746G-Discovery/stm32746g_discovery.c **** 
 515:Drivers/BSP/STM32746G-Discovery/stm32746g_discovery.c ****     /* Force the I2C peripheral clock reset */
 516:Drivers/BSP/STM32746G-Discovery/stm32746g_discovery.c ****     DISCOVERY_EXT_I2Cx_FORCE_RESET();
 118              		.loc 1 516 5 view .LVU32
 119 005e 236A     		ldr	r3, [r4, #32]
 120 0060 43F40013 		orr	r3, r3, #2097152
 121 0064 2362     		str	r3, [r4, #32]
 517:Drivers/BSP/STM32746G-Discovery/stm32746g_discovery.c **** 
 518:Drivers/BSP/STM32746G-Discovery/stm32746g_discovery.c ****     /* Release the I2C peripheral clock reset */
 519:Drivers/BSP/STM32746G-Discovery/stm32746g_discovery.c ****     DISCOVERY_EXT_I2Cx_RELEASE_RESET();
 122              		.loc 1 519 5 view .LVU33
 123 0066 236A     		ldr	r3, [r4, #32]
 124 0068 23F40013 		bic	r3, r3, #2097152
 125 006c 2362     		str	r3, [r4, #32]
 520:Drivers/BSP/STM32746G-Discovery/stm32746g_discovery.c **** 
 521:Drivers/BSP/STM32746G-Discovery/stm32746g_discovery.c ****     /* Enable and set I2Cx Interrupt to a lower priority */
 522:Drivers/BSP/STM32746G-Discovery/stm32746g_discovery.c ****     HAL_NVIC_SetPriority(DISCOVERY_EXT_I2Cx_EV_IRQn, 0x0F, 0);
 126              		.loc 1 522 5 view .LVU34
 127 006e 2A46     		mov	r2, r5
 128 0070 0F21     		movs	r1, #15
 129 0072 1F20     		movs	r0, #31
 130 0074 FFF7FEFF 		bl	HAL_NVIC_SetPriority
 131              	.LVL4:
 523:Drivers/BSP/STM32746G-Discovery/stm32746g_discovery.c ****     HAL_NVIC_EnableIRQ(DISCOVERY_EXT_I2Cx_EV_IRQn);
 132              		.loc 1 523 5 view .LVU35
 133 0078 1F20     		movs	r0, #31
 134 007a FFF7FEFF 		bl	HAL_NVIC_EnableIRQ
 135              	.LVL5:
 524:Drivers/BSP/STM32746G-Discovery/stm32746g_discovery.c **** 
 525:Drivers/BSP/STM32746G-Discovery/stm32746g_discovery.c ****     /* Enable and set I2Cx Interrupt to a lower priority */
 526:Drivers/BSP/STM32746G-Discovery/stm32746g_discovery.c ****     HAL_NVIC_SetPriority(DISCOVERY_EXT_I2Cx_ER_IRQn, 0x0F, 0);
 136              		.loc 1 526 5 view .LVU36
 137 007e 2A46     		mov	r2, r5
 138 0080 0F21     		movs	r1, #15
 139 0082 2020     		movs	r0, #32
 140 0084 FFF7FEFF 		bl	HAL_NVIC_SetPriority
 141              	.LVL6:
 527:Drivers/BSP/STM32746G-Discovery/stm32746g_discovery.c ****     HAL_NVIC_EnableIRQ(DISCOVERY_EXT_I2Cx_ER_IRQn);
 142              		.loc 1 527 5 view .LVU37
 143 0088 2020     		movs	r0, #32
 144 008a FFF7FEFF 		bl	HAL_NVIC_EnableIRQ
 145              	.LVL7:
 146              	.L1:
 528:Drivers/BSP/STM32746G-Discovery/stm32746g_discovery.c ****   }
 529:Drivers/BSP/STM32746G-Discovery/stm32746g_discovery.c **** }
 147              		.loc 1 529 1 is_stmt 0 view .LVU38
 148 008e 0AB0     		add	sp, sp, #40
 149              	.LCFI2:
 150              		.cfi_remember_state
 151              		.cfi_def_cfa_offset 16
 152              		@ sp needed
 153 0090 70BD     		pop	{r4, r5, r6, pc}
 154              	.LVL8:
 155              	.L5:
 156              	.LCFI3:
ARM GAS  D:\cygwin64\tmp\ccVIozHZ.s 			page 13


 157              		.cfi_restore_state
 459:Drivers/BSP/STM32746G-Discovery/stm32746g_discovery.c **** 
 158              		.loc 1 459 5 is_stmt 1 view .LVU39
 159              	.LBB4:
 459:Drivers/BSP/STM32746G-Discovery/stm32746g_discovery.c **** 
 160              		.loc 1 459 5 view .LVU40
 459:Drivers/BSP/STM32746G-Discovery/stm32746g_discovery.c **** 
 161              		.loc 1 459 5 view .LVU41
 162 0092 224C     		ldr	r4, .L6+4
 163 0094 236B     		ldr	r3, [r4, #48]
 164 0096 43F08003 		orr	r3, r3, #128
 165 009a 2363     		str	r3, [r4, #48]
 459:Drivers/BSP/STM32746G-Discovery/stm32746g_discovery.c **** 
 166              		.loc 1 459 5 view .LVU42
 167 009c 236B     		ldr	r3, [r4, #48]
 168 009e 03F08003 		and	r3, r3, #128
 169 00a2 0193     		str	r3, [sp, #4]
 459:Drivers/BSP/STM32746G-Discovery/stm32746g_discovery.c **** 
 170              		.loc 1 459 5 view .LVU43
 171 00a4 019B     		ldr	r3, [sp, #4]
 172              	.LBE4:
 459:Drivers/BSP/STM32746G-Discovery/stm32746g_discovery.c **** 
 173              		.loc 1 459 5 view .LVU44
 462:Drivers/BSP/STM32746G-Discovery/stm32746g_discovery.c ****     gpio_init_structure.Mode = GPIO_MODE_AF_OD;
 174              		.loc 1 462 5 view .LVU45
 462:Drivers/BSP/STM32746G-Discovery/stm32746g_discovery.c ****     gpio_init_structure.Mode = GPIO_MODE_AF_OD;
 175              		.loc 1 462 29 is_stmt 0 view .LVU46
 176 00a6 8023     		movs	r3, #128
 177 00a8 0593     		str	r3, [sp, #20]
 463:Drivers/BSP/STM32746G-Discovery/stm32746g_discovery.c ****     gpio_init_structure.Pull = GPIO_NOPULL;
 178              		.loc 1 463 5 is_stmt 1 view .LVU47
 463:Drivers/BSP/STM32746G-Discovery/stm32746g_discovery.c ****     gpio_init_structure.Pull = GPIO_NOPULL;
 179              		.loc 1 463 30 is_stmt 0 view .LVU48
 180 00aa 1223     		movs	r3, #18
 181 00ac 0693     		str	r3, [sp, #24]
 464:Drivers/BSP/STM32746G-Discovery/stm32746g_discovery.c ****     gpio_init_structure.Speed = GPIO_SPEED_FAST;
 182              		.loc 1 464 5 is_stmt 1 view .LVU49
 464:Drivers/BSP/STM32746G-Discovery/stm32746g_discovery.c ****     gpio_init_structure.Speed = GPIO_SPEED_FAST;
 183              		.loc 1 464 30 is_stmt 0 view .LVU50
 184 00ae 0025     		movs	r5, #0
 185 00b0 0795     		str	r5, [sp, #28]
 465:Drivers/BSP/STM32746G-Discovery/stm32746g_discovery.c ****     gpio_init_structure.Alternate = DISCOVERY_AUDIO_I2Cx_SCL_SDA_AF;
 186              		.loc 1 465 5 is_stmt 1 view .LVU51
 465:Drivers/BSP/STM32746G-Discovery/stm32746g_discovery.c ****     gpio_init_structure.Alternate = DISCOVERY_AUDIO_I2Cx_SCL_SDA_AF;
 187              		.loc 1 465 31 is_stmt 0 view .LVU52
 188 00b2 0223     		movs	r3, #2
 189 00b4 0893     		str	r3, [sp, #32]
 466:Drivers/BSP/STM32746G-Discovery/stm32746g_discovery.c ****     HAL_GPIO_Init(DISCOVERY_AUDIO_I2Cx_SCL_SDA_GPIO_PORT, &gpio_init_structure);
 190              		.loc 1 466 5 is_stmt 1 view .LVU53
 466:Drivers/BSP/STM32746G-Discovery/stm32746g_discovery.c ****     HAL_GPIO_Init(DISCOVERY_AUDIO_I2Cx_SCL_SDA_GPIO_PORT, &gpio_init_structure);
 191              		.loc 1 466 35 is_stmt 0 view .LVU54
 192 00b6 0423     		movs	r3, #4
 193 00b8 0993     		str	r3, [sp, #36]
 467:Drivers/BSP/STM32746G-Discovery/stm32746g_discovery.c **** 
 194              		.loc 1 467 5 is_stmt 1 view .LVU55
 195 00ba 1A4E     		ldr	r6, .L6+12
 196 00bc 05A9     		add	r1, sp, #20
ARM GAS  D:\cygwin64\tmp\ccVIozHZ.s 			page 14


 197 00be 3046     		mov	r0, r6
 198              	.LVL9:
 467:Drivers/BSP/STM32746G-Discovery/stm32746g_discovery.c **** 
 199              		.loc 1 467 5 is_stmt 0 view .LVU56
 200 00c0 FFF7FEFF 		bl	HAL_GPIO_Init
 201              	.LVL10:
 470:Drivers/BSP/STM32746G-Discovery/stm32746g_discovery.c ****     HAL_GPIO_Init(DISCOVERY_AUDIO_I2Cx_SCL_SDA_GPIO_PORT, &gpio_init_structure);
 202              		.loc 1 470 5 is_stmt 1 view .LVU57
 470:Drivers/BSP/STM32746G-Discovery/stm32746g_discovery.c ****     HAL_GPIO_Init(DISCOVERY_AUDIO_I2Cx_SCL_SDA_GPIO_PORT, &gpio_init_structure);
 203              		.loc 1 470 29 is_stmt 0 view .LVU58
 204 00c4 4FF48073 		mov	r3, #256
 205 00c8 0593     		str	r3, [sp, #20]
 471:Drivers/BSP/STM32746G-Discovery/stm32746g_discovery.c **** 
 206              		.loc 1 471 5 is_stmt 1 view .LVU59
 207 00ca 05A9     		add	r1, sp, #20
 208 00cc 3046     		mov	r0, r6
 209 00ce FFF7FEFF 		bl	HAL_GPIO_Init
 210              	.LVL11:
 475:Drivers/BSP/STM32746G-Discovery/stm32746g_discovery.c **** 
 211              		.loc 1 475 5 view .LVU60
 212              	.LBB5:
 475:Drivers/BSP/STM32746G-Discovery/stm32746g_discovery.c **** 
 213              		.loc 1 475 5 view .LVU61
 475:Drivers/BSP/STM32746G-Discovery/stm32746g_discovery.c **** 
 214              		.loc 1 475 5 view .LVU62
 215 00d2 236C     		ldr	r3, [r4, #64]
 216 00d4 43F40003 		orr	r3, r3, #8388608
 217 00d8 2364     		str	r3, [r4, #64]
 475:Drivers/BSP/STM32746G-Discovery/stm32746g_discovery.c **** 
 218              		.loc 1 475 5 view .LVU63
 219 00da 236C     		ldr	r3, [r4, #64]
 220 00dc 03F40003 		and	r3, r3, #8388608
 221 00e0 0293     		str	r3, [sp, #8]
 475:Drivers/BSP/STM32746G-Discovery/stm32746g_discovery.c **** 
 222              		.loc 1 475 5 view .LVU64
 223 00e2 029B     		ldr	r3, [sp, #8]
 224              	.LBE5:
 475:Drivers/BSP/STM32746G-Discovery/stm32746g_discovery.c **** 
 225              		.loc 1 475 5 view .LVU65
 478:Drivers/BSP/STM32746G-Discovery/stm32746g_discovery.c **** 
 226              		.loc 1 478 5 view .LVU66
 227 00e4 236A     		ldr	r3, [r4, #32]
 228 00e6 43F40003 		orr	r3, r3, #8388608
 229 00ea 2362     		str	r3, [r4, #32]
 481:Drivers/BSP/STM32746G-Discovery/stm32746g_discovery.c **** 
 230              		.loc 1 481 5 view .LVU67
 231 00ec 236A     		ldr	r3, [r4, #32]
 232 00ee 23F40003 		bic	r3, r3, #8388608
 233 00f2 2362     		str	r3, [r4, #32]
 484:Drivers/BSP/STM32746G-Discovery/stm32746g_discovery.c ****     HAL_NVIC_EnableIRQ(DISCOVERY_AUDIO_I2Cx_EV_IRQn);
 234              		.loc 1 484 5 view .LVU68
 235 00f4 2A46     		mov	r2, r5
 236 00f6 0F21     		movs	r1, #15
 237 00f8 4820     		movs	r0, #72
 238 00fa FFF7FEFF 		bl	HAL_NVIC_SetPriority
 239              	.LVL12:
 485:Drivers/BSP/STM32746G-Discovery/stm32746g_discovery.c **** 
ARM GAS  D:\cygwin64\tmp\ccVIozHZ.s 			page 15


 240              		.loc 1 485 5 view .LVU69
 241 00fe 4820     		movs	r0, #72
 242 0100 FFF7FEFF 		bl	HAL_NVIC_EnableIRQ
 243              	.LVL13:
 488:Drivers/BSP/STM32746G-Discovery/stm32746g_discovery.c ****     HAL_NVIC_EnableIRQ(DISCOVERY_AUDIO_I2Cx_ER_IRQn);
 244              		.loc 1 488 5 view .LVU70
 245 0104 2A46     		mov	r2, r5
 246 0106 0F21     		movs	r1, #15
 247 0108 4920     		movs	r0, #73
 248 010a FFF7FEFF 		bl	HAL_NVIC_SetPriority
 249              	.LVL14:
 489:Drivers/BSP/STM32746G-Discovery/stm32746g_discovery.c ****   }
 250              		.loc 1 489 5 view .LVU71
 251 010e 4920     		movs	r0, #73
 252 0110 FFF7FEFF 		bl	HAL_NVIC_EnableIRQ
 253              	.LVL15:
 254 0114 BBE7     		b	.L1
 255              	.L7:
 256 0116 00BF     		.align	2
 257              	.L6:
 258 0118 00000000 		.word	hI2cAudioHandler
 259 011c 00380240 		.word	1073887232
 260 0120 00040240 		.word	1073873920
 261 0124 001C0240 		.word	1073880064
 262              		.cfi_endproc
 263              	.LFE152:
 265              		.section	.text.I2Cx_Init,"ax",%progbits
 266              		.align	1
 267              		.syntax unified
 268              		.thumb
 269              		.thumb_func
 271              	I2Cx_Init:
 272              	.LVL16:
 273              	.LFB153:
 530:Drivers/BSP/STM32746G-Discovery/stm32746g_discovery.c **** 
 531:Drivers/BSP/STM32746G-Discovery/stm32746g_discovery.c **** /**
 532:Drivers/BSP/STM32746G-Discovery/stm32746g_discovery.c ****   * @brief  Initializes I2C HAL.
 533:Drivers/BSP/STM32746G-Discovery/stm32746g_discovery.c ****   * @param  i2c_handler : I2C handler
 534:Drivers/BSP/STM32746G-Discovery/stm32746g_discovery.c ****   * @retval None
 535:Drivers/BSP/STM32746G-Discovery/stm32746g_discovery.c ****   */
 536:Drivers/BSP/STM32746G-Discovery/stm32746g_discovery.c **** static void I2Cx_Init(I2C_HandleTypeDef *i2c_handler)
 537:Drivers/BSP/STM32746G-Discovery/stm32746g_discovery.c **** {
 274              		.loc 1 537 1 view -0
 275              		.cfi_startproc
 276              		@ args = 0, pretend = 0, frame = 0
 277              		@ frame_needed = 0, uses_anonymous_args = 0
 278              		.loc 1 537 1 is_stmt 0 view .LVU73
 279 0000 10B5     		push	{r4, lr}
 280              	.LCFI4:
 281              		.cfi_def_cfa_offset 8
 282              		.cfi_offset 4, -8
 283              		.cfi_offset 14, -4
 284 0002 0446     		mov	r4, r0
 538:Drivers/BSP/STM32746G-Discovery/stm32746g_discovery.c ****   if(HAL_I2C_GetState(i2c_handler) == HAL_I2C_STATE_RESET)
 285              		.loc 1 538 3 is_stmt 1 view .LVU74
 286              		.loc 1 538 6 is_stmt 0 view .LVU75
 287 0004 FFF7FEFF 		bl	HAL_I2C_GetState
ARM GAS  D:\cygwin64\tmp\ccVIozHZ.s 			page 16


 288              	.LVL17:
 289              		.loc 1 538 5 discriminator 1 view .LVU76
 290 0008 A0B9     		cbnz	r0, .L8
 539:Drivers/BSP/STM32746G-Discovery/stm32746g_discovery.c ****   {
 540:Drivers/BSP/STM32746G-Discovery/stm32746g_discovery.c ****     if (i2c_handler == (I2C_HandleTypeDef*)(&hI2cAudioHandler))
 291              		.loc 1 540 5 is_stmt 1 view .LVU77
 292              		.loc 1 540 8 is_stmt 0 view .LVU78
 293 000a 0C4B     		ldr	r3, .L14
 294 000c 9C42     		cmp	r4, r3
 295 000e 12D0     		beq	.L13
 541:Drivers/BSP/STM32746G-Discovery/stm32746g_discovery.c ****     {
 542:Drivers/BSP/STM32746G-Discovery/stm32746g_discovery.c ****       /* Audio and LCD I2C configuration */
 543:Drivers/BSP/STM32746G-Discovery/stm32746g_discovery.c ****       i2c_handler->Instance = DISCOVERY_AUDIO_I2Cx;
 544:Drivers/BSP/STM32746G-Discovery/stm32746g_discovery.c ****     }
 545:Drivers/BSP/STM32746G-Discovery/stm32746g_discovery.c ****     else
 546:Drivers/BSP/STM32746G-Discovery/stm32746g_discovery.c ****     {
 547:Drivers/BSP/STM32746G-Discovery/stm32746g_discovery.c ****       /* External, camera and Arduino connector  I2C configuration */
 548:Drivers/BSP/STM32746G-Discovery/stm32746g_discovery.c ****       i2c_handler->Instance = DISCOVERY_EXT_I2Cx;
 296              		.loc 1 548 7 is_stmt 1 view .LVU79
 297              		.loc 1 548 29 is_stmt 0 view .LVU80
 298 0010 0B4B     		ldr	r3, .L14+4
 299 0012 2360     		str	r3, [r4]
 300              	.L11:
 549:Drivers/BSP/STM32746G-Discovery/stm32746g_discovery.c ****     }
 550:Drivers/BSP/STM32746G-Discovery/stm32746g_discovery.c ****     i2c_handler->Init.Timing           = DISCOVERY_I2Cx_TIMING;
 301              		.loc 1 550 5 is_stmt 1 view .LVU81
 302              		.loc 1 550 40 is_stmt 0 view .LVU82
 303 0014 0B4B     		ldr	r3, .L14+8
 304 0016 6360     		str	r3, [r4, #4]
 551:Drivers/BSP/STM32746G-Discovery/stm32746g_discovery.c ****     i2c_handler->Init.OwnAddress1      = 0;
 305              		.loc 1 551 5 is_stmt 1 view .LVU83
 306              		.loc 1 551 40 is_stmt 0 view .LVU84
 307 0018 0023     		movs	r3, #0
 308 001a A360     		str	r3, [r4, #8]
 552:Drivers/BSP/STM32746G-Discovery/stm32746g_discovery.c ****     i2c_handler->Init.AddressingMode   = I2C_ADDRESSINGMODE_7BIT;
 309              		.loc 1 552 5 is_stmt 1 view .LVU85
 310              		.loc 1 552 40 is_stmt 0 view .LVU86
 311 001c 0122     		movs	r2, #1
 312 001e E260     		str	r2, [r4, #12]
 553:Drivers/BSP/STM32746G-Discovery/stm32746g_discovery.c ****     i2c_handler->Init.DualAddressMode  = I2C_DUALADDRESS_DISABLE;
 313              		.loc 1 553 5 is_stmt 1 view .LVU87
 314              		.loc 1 553 40 is_stmt 0 view .LVU88
 315 0020 2361     		str	r3, [r4, #16]
 554:Drivers/BSP/STM32746G-Discovery/stm32746g_discovery.c ****     i2c_handler->Init.OwnAddress2      = 0;
 316              		.loc 1 554 5 is_stmt 1 view .LVU89
 317              		.loc 1 554 40 is_stmt 0 view .LVU90
 318 0022 6361     		str	r3, [r4, #20]
 555:Drivers/BSP/STM32746G-Discovery/stm32746g_discovery.c ****     i2c_handler->Init.GeneralCallMode  = I2C_GENERALCALL_DISABLE;
 319              		.loc 1 555 5 is_stmt 1 view .LVU91
 320              		.loc 1 555 40 is_stmt 0 view .LVU92
 321 0024 E361     		str	r3, [r4, #28]
 556:Drivers/BSP/STM32746G-Discovery/stm32746g_discovery.c ****     i2c_handler->Init.NoStretchMode    = I2C_NOSTRETCH_DISABLE;
 322              		.loc 1 556 5 is_stmt 1 view .LVU93
 323              		.loc 1 556 40 is_stmt 0 view .LVU94
 324 0026 2362     		str	r3, [r4, #32]
 557:Drivers/BSP/STM32746G-Discovery/stm32746g_discovery.c **** 
 558:Drivers/BSP/STM32746G-Discovery/stm32746g_discovery.c ****     /* Init the I2C */
ARM GAS  D:\cygwin64\tmp\ccVIozHZ.s 			page 17


 559:Drivers/BSP/STM32746G-Discovery/stm32746g_discovery.c ****     I2Cx_MspInit(i2c_handler);
 325              		.loc 1 559 5 is_stmt 1 view .LVU95
 326 0028 2046     		mov	r0, r4
 327 002a FFF7FEFF 		bl	I2Cx_MspInit
 328              	.LVL18:
 560:Drivers/BSP/STM32746G-Discovery/stm32746g_discovery.c ****     HAL_I2C_Init(i2c_handler);
 329              		.loc 1 560 5 view .LVU96
 330 002e 2046     		mov	r0, r4
 331 0030 FFF7FEFF 		bl	HAL_I2C_Init
 332              	.LVL19:
 333              	.L8:
 561:Drivers/BSP/STM32746G-Discovery/stm32746g_discovery.c ****   }
 562:Drivers/BSP/STM32746G-Discovery/stm32746g_discovery.c **** }
 334              		.loc 1 562 1 is_stmt 0 view .LVU97
 335 0034 10BD     		pop	{r4, pc}
 336              	.LVL20:
 337              	.L13:
 543:Drivers/BSP/STM32746G-Discovery/stm32746g_discovery.c ****     }
 338              		.loc 1 543 7 is_stmt 1 view .LVU98
 543:Drivers/BSP/STM32746G-Discovery/stm32746g_discovery.c ****     }
 339              		.loc 1 543 29 is_stmt 0 view .LVU99
 340 0036 044B     		ldr	r3, .L14+12
 341 0038 2360     		str	r3, [r4]
 342 003a EBE7     		b	.L11
 343              	.L15:
 344              		.align	2
 345              	.L14:
 346 003c 00000000 		.word	hI2cAudioHandler
 347 0040 00540040 		.word	1073763328
 348 0044 32279140 		.word	1083254578
 349 0048 005C0040 		.word	1073765376
 350              		.cfi_endproc
 351              	.LFE153:
 353              		.section	.text.I2Cx_Error,"ax",%progbits
 354              		.align	1
 355              		.syntax unified
 356              		.thumb
 357              		.thumb_func
 359              	I2Cx_Error:
 360              	.LVL21:
 361              	.LFB157:
 563:Drivers/BSP/STM32746G-Discovery/stm32746g_discovery.c **** 
 564:Drivers/BSP/STM32746G-Discovery/stm32746g_discovery.c **** /**
 565:Drivers/BSP/STM32746G-Discovery/stm32746g_discovery.c ****   * @brief  Reads multiple data.
 566:Drivers/BSP/STM32746G-Discovery/stm32746g_discovery.c ****   * @param  i2c_handler : I2C handler
 567:Drivers/BSP/STM32746G-Discovery/stm32746g_discovery.c ****   * @param  Addr: I2C address
 568:Drivers/BSP/STM32746G-Discovery/stm32746g_discovery.c ****   * @param  Reg: Reg address 
 569:Drivers/BSP/STM32746G-Discovery/stm32746g_discovery.c ****   * @param  MemAddress: Memory address 
 570:Drivers/BSP/STM32746G-Discovery/stm32746g_discovery.c ****   * @param  Buffer: Pointer to data buffer
 571:Drivers/BSP/STM32746G-Discovery/stm32746g_discovery.c ****   * @param  Length: Length of the data
 572:Drivers/BSP/STM32746G-Discovery/stm32746g_discovery.c ****   * @retval Number of read data
 573:Drivers/BSP/STM32746G-Discovery/stm32746g_discovery.c ****   */
 574:Drivers/BSP/STM32746G-Discovery/stm32746g_discovery.c **** static HAL_StatusTypeDef I2Cx_ReadMultiple(I2C_HandleTypeDef *i2c_handler,
 575:Drivers/BSP/STM32746G-Discovery/stm32746g_discovery.c ****                                            uint8_t Addr,
 576:Drivers/BSP/STM32746G-Discovery/stm32746g_discovery.c ****                                            uint16_t Reg,
 577:Drivers/BSP/STM32746G-Discovery/stm32746g_discovery.c ****                                            uint16_t MemAddress,
 578:Drivers/BSP/STM32746G-Discovery/stm32746g_discovery.c ****                                            uint8_t *Buffer,
ARM GAS  D:\cygwin64\tmp\ccVIozHZ.s 			page 18


 579:Drivers/BSP/STM32746G-Discovery/stm32746g_discovery.c ****                                            uint16_t Length)
 580:Drivers/BSP/STM32746G-Discovery/stm32746g_discovery.c **** {
 581:Drivers/BSP/STM32746G-Discovery/stm32746g_discovery.c ****   HAL_StatusTypeDef status = HAL_OK;
 582:Drivers/BSP/STM32746G-Discovery/stm32746g_discovery.c **** 
 583:Drivers/BSP/STM32746G-Discovery/stm32746g_discovery.c ****   status = HAL_I2C_Mem_Read(i2c_handler, Addr, (uint16_t)Reg, MemAddress, Buffer, Length, 1000);
 584:Drivers/BSP/STM32746G-Discovery/stm32746g_discovery.c **** 
 585:Drivers/BSP/STM32746G-Discovery/stm32746g_discovery.c ****   /* Check the communication status */
 586:Drivers/BSP/STM32746G-Discovery/stm32746g_discovery.c ****   if(status != HAL_OK)
 587:Drivers/BSP/STM32746G-Discovery/stm32746g_discovery.c ****   {
 588:Drivers/BSP/STM32746G-Discovery/stm32746g_discovery.c ****     /* I2C error occurred */
 589:Drivers/BSP/STM32746G-Discovery/stm32746g_discovery.c ****     I2Cx_Error(i2c_handler, Addr);
 590:Drivers/BSP/STM32746G-Discovery/stm32746g_discovery.c ****   }
 591:Drivers/BSP/STM32746G-Discovery/stm32746g_discovery.c ****   return status;    
 592:Drivers/BSP/STM32746G-Discovery/stm32746g_discovery.c **** }
 593:Drivers/BSP/STM32746G-Discovery/stm32746g_discovery.c **** 
 594:Drivers/BSP/STM32746G-Discovery/stm32746g_discovery.c **** /**
 595:Drivers/BSP/STM32746G-Discovery/stm32746g_discovery.c ****   * @brief  Writes a value in a register of the device through BUS in using DMA mode.
 596:Drivers/BSP/STM32746G-Discovery/stm32746g_discovery.c ****   * @param  i2c_handler : I2C handler
 597:Drivers/BSP/STM32746G-Discovery/stm32746g_discovery.c ****   * @param  Addr: Device address on BUS Bus.  
 598:Drivers/BSP/STM32746G-Discovery/stm32746g_discovery.c ****   * @param  Reg: The target register address to write
 599:Drivers/BSP/STM32746G-Discovery/stm32746g_discovery.c ****   * @param  MemAddress: Memory address 
 600:Drivers/BSP/STM32746G-Discovery/stm32746g_discovery.c ****   * @param  Buffer: The target register value to be written 
 601:Drivers/BSP/STM32746G-Discovery/stm32746g_discovery.c ****   * @param  Length: buffer size to be written
 602:Drivers/BSP/STM32746G-Discovery/stm32746g_discovery.c ****   * @retval HAL status
 603:Drivers/BSP/STM32746G-Discovery/stm32746g_discovery.c ****   */
 604:Drivers/BSP/STM32746G-Discovery/stm32746g_discovery.c **** static HAL_StatusTypeDef I2Cx_WriteMultiple(I2C_HandleTypeDef *i2c_handler,
 605:Drivers/BSP/STM32746G-Discovery/stm32746g_discovery.c ****                                             uint8_t Addr,
 606:Drivers/BSP/STM32746G-Discovery/stm32746g_discovery.c ****                                             uint16_t Reg,
 607:Drivers/BSP/STM32746G-Discovery/stm32746g_discovery.c ****                                             uint16_t MemAddress,
 608:Drivers/BSP/STM32746G-Discovery/stm32746g_discovery.c ****                                             uint8_t *Buffer,
 609:Drivers/BSP/STM32746G-Discovery/stm32746g_discovery.c ****                                             uint16_t Length)
 610:Drivers/BSP/STM32746G-Discovery/stm32746g_discovery.c **** {
 611:Drivers/BSP/STM32746G-Discovery/stm32746g_discovery.c ****   HAL_StatusTypeDef status = HAL_OK;
 612:Drivers/BSP/STM32746G-Discovery/stm32746g_discovery.c ****   
 613:Drivers/BSP/STM32746G-Discovery/stm32746g_discovery.c ****   status = HAL_I2C_Mem_Write(i2c_handler, Addr, (uint16_t)Reg, MemAddress, Buffer, Length, 1000);
 614:Drivers/BSP/STM32746G-Discovery/stm32746g_discovery.c ****   
 615:Drivers/BSP/STM32746G-Discovery/stm32746g_discovery.c ****   /* Check the communication status */
 616:Drivers/BSP/STM32746G-Discovery/stm32746g_discovery.c ****   if(status != HAL_OK)
 617:Drivers/BSP/STM32746G-Discovery/stm32746g_discovery.c ****   {
 618:Drivers/BSP/STM32746G-Discovery/stm32746g_discovery.c ****     /* Re-Initiaize the I2C Bus */
 619:Drivers/BSP/STM32746G-Discovery/stm32746g_discovery.c ****     I2Cx_Error(i2c_handler, Addr);
 620:Drivers/BSP/STM32746G-Discovery/stm32746g_discovery.c ****   }
 621:Drivers/BSP/STM32746G-Discovery/stm32746g_discovery.c ****   return status;
 622:Drivers/BSP/STM32746G-Discovery/stm32746g_discovery.c **** }
 623:Drivers/BSP/STM32746G-Discovery/stm32746g_discovery.c **** 
 624:Drivers/BSP/STM32746G-Discovery/stm32746g_discovery.c **** /**
 625:Drivers/BSP/STM32746G-Discovery/stm32746g_discovery.c ****   * @brief  Checks if target device is ready for communication. 
 626:Drivers/BSP/STM32746G-Discovery/stm32746g_discovery.c ****   * @note   This function is used with Memory devices
 627:Drivers/BSP/STM32746G-Discovery/stm32746g_discovery.c ****   * @param  i2c_handler : I2C handler
 628:Drivers/BSP/STM32746G-Discovery/stm32746g_discovery.c ****   * @param  DevAddress: Target device address
 629:Drivers/BSP/STM32746G-Discovery/stm32746g_discovery.c ****   * @param  Trials: Number of trials
 630:Drivers/BSP/STM32746G-Discovery/stm32746g_discovery.c ****   * @retval HAL status
 631:Drivers/BSP/STM32746G-Discovery/stm32746g_discovery.c ****   */
 632:Drivers/BSP/STM32746G-Discovery/stm32746g_discovery.c **** static HAL_StatusTypeDef I2Cx_IsDeviceReady(I2C_HandleTypeDef *i2c_handler, uint16_t DevAddress, ui
 633:Drivers/BSP/STM32746G-Discovery/stm32746g_discovery.c **** { 
 634:Drivers/BSP/STM32746G-Discovery/stm32746g_discovery.c ****   return (HAL_I2C_IsDeviceReady(i2c_handler, DevAddress, Trials, 1000));
 635:Drivers/BSP/STM32746G-Discovery/stm32746g_discovery.c **** }
ARM GAS  D:\cygwin64\tmp\ccVIozHZ.s 			page 19


 636:Drivers/BSP/STM32746G-Discovery/stm32746g_discovery.c **** 
 637:Drivers/BSP/STM32746G-Discovery/stm32746g_discovery.c **** /**
 638:Drivers/BSP/STM32746G-Discovery/stm32746g_discovery.c ****   * @brief  Manages error callback by re-initializing I2C.
 639:Drivers/BSP/STM32746G-Discovery/stm32746g_discovery.c ****   * @param  i2c_handler : I2C handler
 640:Drivers/BSP/STM32746G-Discovery/stm32746g_discovery.c ****   * @param  Addr: I2C Address
 641:Drivers/BSP/STM32746G-Discovery/stm32746g_discovery.c ****   * @retval None
 642:Drivers/BSP/STM32746G-Discovery/stm32746g_discovery.c ****   */
 643:Drivers/BSP/STM32746G-Discovery/stm32746g_discovery.c **** static void I2Cx_Error(I2C_HandleTypeDef *i2c_handler, uint8_t Addr)
 644:Drivers/BSP/STM32746G-Discovery/stm32746g_discovery.c **** {
 362              		.loc 1 644 1 is_stmt 1 view -0
 363              		.cfi_startproc
 364              		@ args = 0, pretend = 0, frame = 0
 365              		@ frame_needed = 0, uses_anonymous_args = 0
 366              		.loc 1 644 1 is_stmt 0 view .LVU101
 367 0000 10B5     		push	{r4, lr}
 368              	.LCFI5:
 369              		.cfi_def_cfa_offset 8
 370              		.cfi_offset 4, -8
 371              		.cfi_offset 14, -4
 372 0002 0446     		mov	r4, r0
 645:Drivers/BSP/STM32746G-Discovery/stm32746g_discovery.c ****   /* De-initialize the I2C communication bus */
 646:Drivers/BSP/STM32746G-Discovery/stm32746g_discovery.c ****   HAL_I2C_DeInit(i2c_handler);
 373              		.loc 1 646 3 is_stmt 1 view .LVU102
 374 0004 FFF7FEFF 		bl	HAL_I2C_DeInit
 375              	.LVL22:
 647:Drivers/BSP/STM32746G-Discovery/stm32746g_discovery.c ****   
 648:Drivers/BSP/STM32746G-Discovery/stm32746g_discovery.c ****   /* Re-Initialize the I2C communication bus */
 649:Drivers/BSP/STM32746G-Discovery/stm32746g_discovery.c ****   I2Cx_Init(i2c_handler);
 376              		.loc 1 649 3 view .LVU103
 377 0008 2046     		mov	r0, r4
 378 000a FFF7FEFF 		bl	I2Cx_Init
 379              	.LVL23:
 650:Drivers/BSP/STM32746G-Discovery/stm32746g_discovery.c **** }
 380              		.loc 1 650 1 is_stmt 0 view .LVU104
 381 000e 10BD     		pop	{r4, pc}
 382              		.loc 1 650 1 view .LVU105
 383              		.cfi_endproc
 384              	.LFE157:
 386              		.section	.text.I2Cx_WriteMultiple,"ax",%progbits
 387              		.align	1
 388              		.syntax unified
 389              		.thumb
 390              		.thumb_func
 392              	I2Cx_WriteMultiple:
 393              	.LVL24:
 394              	.LFB155:
 610:Drivers/BSP/STM32746G-Discovery/stm32746g_discovery.c ****   HAL_StatusTypeDef status = HAL_OK;
 395              		.loc 1 610 1 is_stmt 1 view -0
 396              		.cfi_startproc
 397              		@ args = 8, pretend = 0, frame = 0
 398              		@ frame_needed = 0, uses_anonymous_args = 0
 610:Drivers/BSP/STM32746G-Discovery/stm32746g_discovery.c ****   HAL_StatusTypeDef status = HAL_OK;
 399              		.loc 1 610 1 is_stmt 0 view .LVU107
 400 0000 70B5     		push	{r4, r5, r6, lr}
 401              	.LCFI6:
 402              		.cfi_def_cfa_offset 16
 403              		.cfi_offset 4, -16
ARM GAS  D:\cygwin64\tmp\ccVIozHZ.s 			page 20


 404              		.cfi_offset 5, -12
 405              		.cfi_offset 6, -8
 406              		.cfi_offset 14, -4
 407 0002 84B0     		sub	sp, sp, #16
 408              	.LCFI7:
 409              		.cfi_def_cfa_offset 32
 410 0004 0446     		mov	r4, r0
 411 0006 0D46     		mov	r5, r1
 611:Drivers/BSP/STM32746G-Discovery/stm32746g_discovery.c ****   
 412              		.loc 1 611 3 is_stmt 1 view .LVU108
 413              	.LVL25:
 613:Drivers/BSP/STM32746G-Discovery/stm32746g_discovery.c ****   
 414              		.loc 1 613 3 view .LVU109
 613:Drivers/BSP/STM32746G-Discovery/stm32746g_discovery.c ****   
 415              		.loc 1 613 12 is_stmt 0 view .LVU110
 416 0008 4FF47A76 		mov	r6, #1000
 417 000c 0296     		str	r6, [sp, #8]
 418 000e BDF82460 		ldrh	r6, [sp, #36]
 419 0012 0196     		str	r6, [sp, #4]
 420 0014 089E     		ldr	r6, [sp, #32]
 421 0016 0096     		str	r6, [sp]
 422 0018 FFF7FEFF 		bl	HAL_I2C_Mem_Write
 423              	.LVL26:
 616:Drivers/BSP/STM32746G-Discovery/stm32746g_discovery.c ****   {
 424              		.loc 1 616 3 is_stmt 1 view .LVU111
 616:Drivers/BSP/STM32746G-Discovery/stm32746g_discovery.c ****   {
 425              		.loc 1 616 5 is_stmt 0 view .LVU112
 426 001c 0646     		mov	r6, r0
 427 001e 10B9     		cbnz	r0, .L21
 428              	.LVL27:
 429              	.L19:
 621:Drivers/BSP/STM32746G-Discovery/stm32746g_discovery.c **** }
 430              		.loc 1 621 3 is_stmt 1 view .LVU113
 622:Drivers/BSP/STM32746G-Discovery/stm32746g_discovery.c **** 
 431              		.loc 1 622 1 is_stmt 0 view .LVU114
 432 0020 3046     		mov	r0, r6
 433 0022 04B0     		add	sp, sp, #16
 434              	.LCFI8:
 435              		.cfi_remember_state
 436              		.cfi_def_cfa_offset 16
 437              		@ sp needed
 438 0024 70BD     		pop	{r4, r5, r6, pc}
 439              	.LVL28:
 440              	.L21:
 441              	.LCFI9:
 442              		.cfi_restore_state
 619:Drivers/BSP/STM32746G-Discovery/stm32746g_discovery.c ****   }
 443              		.loc 1 619 5 is_stmt 1 view .LVU115
 444 0026 2946     		mov	r1, r5
 445 0028 2046     		mov	r0, r4
 446              	.LVL29:
 619:Drivers/BSP/STM32746G-Discovery/stm32746g_discovery.c ****   }
 447              		.loc 1 619 5 is_stmt 0 view .LVU116
 448 002a FFF7FEFF 		bl	I2Cx_Error
 449              	.LVL30:
 450 002e F7E7     		b	.L19
 451              		.cfi_endproc
ARM GAS  D:\cygwin64\tmp\ccVIozHZ.s 			page 21


 452              	.LFE155:
 454              		.section	.text.I2Cx_ReadMultiple,"ax",%progbits
 455              		.align	1
 456              		.syntax unified
 457              		.thumb
 458              		.thumb_func
 460              	I2Cx_ReadMultiple:
 461              	.LVL31:
 462              	.LFB154:
 580:Drivers/BSP/STM32746G-Discovery/stm32746g_discovery.c ****   HAL_StatusTypeDef status = HAL_OK;
 463              		.loc 1 580 1 is_stmt 1 view -0
 464              		.cfi_startproc
 465              		@ args = 8, pretend = 0, frame = 0
 466              		@ frame_needed = 0, uses_anonymous_args = 0
 580:Drivers/BSP/STM32746G-Discovery/stm32746g_discovery.c ****   HAL_StatusTypeDef status = HAL_OK;
 467              		.loc 1 580 1 is_stmt 0 view .LVU118
 468 0000 70B5     		push	{r4, r5, r6, lr}
 469              	.LCFI10:
 470              		.cfi_def_cfa_offset 16
 471              		.cfi_offset 4, -16
 472              		.cfi_offset 5, -12
 473              		.cfi_offset 6, -8
 474              		.cfi_offset 14, -4
 475 0002 84B0     		sub	sp, sp, #16
 476              	.LCFI11:
 477              		.cfi_def_cfa_offset 32
 478 0004 0446     		mov	r4, r0
 479 0006 0D46     		mov	r5, r1
 581:Drivers/BSP/STM32746G-Discovery/stm32746g_discovery.c **** 
 480              		.loc 1 581 3 is_stmt 1 view .LVU119
 481              	.LVL32:
 583:Drivers/BSP/STM32746G-Discovery/stm32746g_discovery.c **** 
 482              		.loc 1 583 3 view .LVU120
 583:Drivers/BSP/STM32746G-Discovery/stm32746g_discovery.c **** 
 483              		.loc 1 583 12 is_stmt 0 view .LVU121
 484 0008 4FF47A76 		mov	r6, #1000
 485 000c 0296     		str	r6, [sp, #8]
 486 000e BDF82460 		ldrh	r6, [sp, #36]
 487 0012 0196     		str	r6, [sp, #4]
 488 0014 089E     		ldr	r6, [sp, #32]
 489 0016 0096     		str	r6, [sp]
 490 0018 FFF7FEFF 		bl	HAL_I2C_Mem_Read
 491              	.LVL33:
 586:Drivers/BSP/STM32746G-Discovery/stm32746g_discovery.c ****   {
 492              		.loc 1 586 3 is_stmt 1 view .LVU122
 586:Drivers/BSP/STM32746G-Discovery/stm32746g_discovery.c ****   {
 493              		.loc 1 586 5 is_stmt 0 view .LVU123
 494 001c 0646     		mov	r6, r0
 495 001e 10B9     		cbnz	r0, .L25
 496              	.LVL34:
 497              	.L23:
 591:Drivers/BSP/STM32746G-Discovery/stm32746g_discovery.c **** }
 498              		.loc 1 591 3 is_stmt 1 view .LVU124
 592:Drivers/BSP/STM32746G-Discovery/stm32746g_discovery.c **** 
 499              		.loc 1 592 1 is_stmt 0 view .LVU125
 500 0020 3046     		mov	r0, r6
 501 0022 04B0     		add	sp, sp, #16
ARM GAS  D:\cygwin64\tmp\ccVIozHZ.s 			page 22


 502              	.LCFI12:
 503              		.cfi_remember_state
 504              		.cfi_def_cfa_offset 16
 505              		@ sp needed
 506 0024 70BD     		pop	{r4, r5, r6, pc}
 507              	.LVL35:
 508              	.L25:
 509              	.LCFI13:
 510              		.cfi_restore_state
 589:Drivers/BSP/STM32746G-Discovery/stm32746g_discovery.c ****   }
 511              		.loc 1 589 5 is_stmt 1 view .LVU126
 512 0026 2946     		mov	r1, r5
 513 0028 2046     		mov	r0, r4
 514              	.LVL36:
 589:Drivers/BSP/STM32746G-Discovery/stm32746g_discovery.c ****   }
 515              		.loc 1 589 5 is_stmt 0 view .LVU127
 516 002a FFF7FEFF 		bl	I2Cx_Error
 517              	.LVL37:
 518 002e F7E7     		b	.L23
 519              		.cfi_endproc
 520              	.LFE154:
 522              		.section	.text.I2Cx_IsDeviceReady,"ax",%progbits
 523              		.align	1
 524              		.syntax unified
 525              		.thumb
 526              		.thumb_func
 528              	I2Cx_IsDeviceReady:
 529              	.LVL38:
 530              	.LFB156:
 633:Drivers/BSP/STM32746G-Discovery/stm32746g_discovery.c ****   return (HAL_I2C_IsDeviceReady(i2c_handler, DevAddress, Trials, 1000));
 531              		.loc 1 633 1 is_stmt 1 view -0
 532              		.cfi_startproc
 533              		@ args = 0, pretend = 0, frame = 0
 534              		@ frame_needed = 0, uses_anonymous_args = 0
 633:Drivers/BSP/STM32746G-Discovery/stm32746g_discovery.c ****   return (HAL_I2C_IsDeviceReady(i2c_handler, DevAddress, Trials, 1000));
 535              		.loc 1 633 1 is_stmt 0 view .LVU129
 536 0000 08B5     		push	{r3, lr}
 537              	.LCFI14:
 538              		.cfi_def_cfa_offset 8
 539              		.cfi_offset 3, -8
 540              		.cfi_offset 14, -4
 634:Drivers/BSP/STM32746G-Discovery/stm32746g_discovery.c **** }
 541              		.loc 1 634 3 is_stmt 1 view .LVU130
 634:Drivers/BSP/STM32746G-Discovery/stm32746g_discovery.c **** }
 542              		.loc 1 634 11 is_stmt 0 view .LVU131
 543 0002 4FF47A73 		mov	r3, #1000
 544 0006 FFF7FEFF 		bl	HAL_I2C_IsDeviceReady
 545              	.LVL39:
 635:Drivers/BSP/STM32746G-Discovery/stm32746g_discovery.c **** 
 546              		.loc 1 635 1 view .LVU132
 547 000a 08BD     		pop	{r3, pc}
 548              		.cfi_endproc
 549              	.LFE156:
 551              		.section	.text.BSP_GetVersion,"ax",%progbits
 552              		.align	1
 553              		.global	BSP_GetVersion
 554              		.syntax unified
ARM GAS  D:\cygwin64\tmp\ccVIozHZ.s 			page 23


 555              		.thumb
 556              		.thumb_func
 558              	BSP_GetVersion:
 559              	.LFB141:
 162:Drivers/BSP/STM32746G-Discovery/stm32746g_discovery.c ****   return __STM32746G_DISCO_BSP_VERSION;
 560              		.loc 1 162 1 is_stmt 1 view -0
 561              		.cfi_startproc
 562              		@ args = 0, pretend = 0, frame = 0
 563              		@ frame_needed = 0, uses_anonymous_args = 0
 564              		@ link register save eliminated.
 163:Drivers/BSP/STM32746G-Discovery/stm32746g_discovery.c **** }
 565              		.loc 1 163 3 view .LVU134
 164:Drivers/BSP/STM32746G-Discovery/stm32746g_discovery.c **** 
 566              		.loc 1 164 1 is_stmt 0 view .LVU135
 567 0000 0048     		ldr	r0, .L29
 568 0002 7047     		bx	lr
 569              	.L30:
 570              		.align	2
 571              	.L29:
 572 0004 00040002 		.word	33555456
 573              		.cfi_endproc
 574              	.LFE141:
 576              		.section	.text.BSP_LED_Init,"ax",%progbits
 577              		.align	1
 578              		.global	BSP_LED_Init
 579              		.syntax unified
 580              		.thumb
 581              		.thumb_func
 583              	BSP_LED_Init:
 584              	.LVL40:
 585              	.LFB142:
 174:Drivers/BSP/STM32746G-Discovery/stm32746g_discovery.c ****   GPIO_InitTypeDef  gpio_init_structure;
 586              		.loc 1 174 1 is_stmt 1 view -0
 587              		.cfi_startproc
 588              		@ args = 0, pretend = 0, frame = 24
 589              		@ frame_needed = 0, uses_anonymous_args = 0
 175:Drivers/BSP/STM32746G-Discovery/stm32746g_discovery.c ****   GPIO_TypeDef*     gpio_led;
 590              		.loc 1 175 3 view .LVU137
 176:Drivers/BSP/STM32746G-Discovery/stm32746g_discovery.c **** 
 591              		.loc 1 176 3 view .LVU138
 178:Drivers/BSP/STM32746G-Discovery/stm32746g_discovery.c ****   {
 592              		.loc 1 178 3 view .LVU139
 178:Drivers/BSP/STM32746G-Discovery/stm32746g_discovery.c ****   {
 593              		.loc 1 178 6 is_stmt 0 view .LVU140
 594 0000 00B1     		cbz	r0, .L37
 595 0002 7047     		bx	lr
 596              	.L37:
 174:Drivers/BSP/STM32746G-Discovery/stm32746g_discovery.c ****   GPIO_InitTypeDef  gpio_init_structure;
 597              		.loc 1 174 1 view .LVU141
 598 0004 30B5     		push	{r4, r5, lr}
 599              	.LCFI15:
 600              		.cfi_def_cfa_offset 12
 601              		.cfi_offset 4, -12
 602              		.cfi_offset 5, -8
 603              		.cfi_offset 14, -4
 604 0006 87B0     		sub	sp, sp, #28
 605              	.LCFI16:
ARM GAS  D:\cygwin64\tmp\ccVIozHZ.s 			page 24


 606              		.cfi_def_cfa_offset 40
 180:Drivers/BSP/STM32746G-Discovery/stm32746g_discovery.c ****     /* Enable the GPIO_LED clock */
 607              		.loc 1 180 5 is_stmt 1 view .LVU142
 608              	.LVL41:
 182:Drivers/BSP/STM32746G-Discovery/stm32746g_discovery.c **** 
 609              		.loc 1 182 5 view .LVU143
 610              	.LBB6:
 182:Drivers/BSP/STM32746G-Discovery/stm32746g_discovery.c **** 
 611              		.loc 1 182 5 view .LVU144
 182:Drivers/BSP/STM32746G-Discovery/stm32746g_discovery.c **** 
 612              		.loc 1 182 5 view .LVU145
 613 0008 0E4B     		ldr	r3, .L38
 614 000a 1A6B     		ldr	r2, [r3, #48]
 615 000c 42F48072 		orr	r2, r2, #256
 616 0010 1A63     		str	r2, [r3, #48]
 182:Drivers/BSP/STM32746G-Discovery/stm32746g_discovery.c **** 
 617              		.loc 1 182 5 view .LVU146
 618 0012 1B6B     		ldr	r3, [r3, #48]
 619 0014 03F48073 		and	r3, r3, #256
 620 0018 0093     		str	r3, [sp]
 182:Drivers/BSP/STM32746G-Discovery/stm32746g_discovery.c **** 
 621              		.loc 1 182 5 view .LVU147
 622 001a 009B     		ldr	r3, [sp]
 623              	.LBE6:
 182:Drivers/BSP/STM32746G-Discovery/stm32746g_discovery.c **** 
 624              		.loc 1 182 5 view .LVU148
 185:Drivers/BSP/STM32746G-Discovery/stm32746g_discovery.c ****     gpio_init_structure.Mode = GPIO_MODE_OUTPUT_PP;
 625              		.loc 1 185 5 view .LVU149
 185:Drivers/BSP/STM32746G-Discovery/stm32746g_discovery.c ****     gpio_init_structure.Mode = GPIO_MODE_OUTPUT_PP;
 626              		.loc 1 185 29 is_stmt 0 view .LVU150
 627 001c 0225     		movs	r5, #2
 628 001e 0195     		str	r5, [sp, #4]
 186:Drivers/BSP/STM32746G-Discovery/stm32746g_discovery.c ****     gpio_init_structure.Pull = GPIO_PULLUP;
 629              		.loc 1 186 5 is_stmt 1 view .LVU151
 186:Drivers/BSP/STM32746G-Discovery/stm32746g_discovery.c ****     gpio_init_structure.Pull = GPIO_PULLUP;
 630              		.loc 1 186 30 is_stmt 0 view .LVU152
 631 0020 0123     		movs	r3, #1
 632 0022 0293     		str	r3, [sp, #8]
 187:Drivers/BSP/STM32746G-Discovery/stm32746g_discovery.c ****     gpio_init_structure.Speed = GPIO_SPEED_HIGH;
 633              		.loc 1 187 5 is_stmt 1 view .LVU153
 187:Drivers/BSP/STM32746G-Discovery/stm32746g_discovery.c ****     gpio_init_structure.Speed = GPIO_SPEED_HIGH;
 634              		.loc 1 187 30 is_stmt 0 view .LVU154
 635 0024 0393     		str	r3, [sp, #12]
 188:Drivers/BSP/STM32746G-Discovery/stm32746g_discovery.c ****   
 636              		.loc 1 188 5 is_stmt 1 view .LVU155
 188:Drivers/BSP/STM32746G-Discovery/stm32746g_discovery.c ****   
 637              		.loc 1 188 31 is_stmt 0 view .LVU156
 638 0026 0323     		movs	r3, #3
 639 0028 0493     		str	r3, [sp, #16]
 190:Drivers/BSP/STM32746G-Discovery/stm32746g_discovery.c ****     
 640              		.loc 1 190 5 is_stmt 1 view .LVU157
 641 002a 074C     		ldr	r4, .L38+4
 642 002c 01A9     		add	r1, sp, #4
 643 002e 2046     		mov	r0, r4
 644              	.LVL42:
 190:Drivers/BSP/STM32746G-Discovery/stm32746g_discovery.c ****     
 645              		.loc 1 190 5 is_stmt 0 view .LVU158
ARM GAS  D:\cygwin64\tmp\ccVIozHZ.s 			page 25


 646 0030 FFF7FEFF 		bl	HAL_GPIO_Init
 647              	.LVL43:
 193:Drivers/BSP/STM32746G-Discovery/stm32746g_discovery.c ****   }
 648              		.loc 1 193 5 is_stmt 1 view .LVU159
 649 0034 0022     		movs	r2, #0
 650 0036 2946     		mov	r1, r5
 651 0038 2046     		mov	r0, r4
 652 003a FFF7FEFF 		bl	HAL_GPIO_WritePin
 653              	.LVL44:
 195:Drivers/BSP/STM32746G-Discovery/stm32746g_discovery.c **** 
 654              		.loc 1 195 1 is_stmt 0 view .LVU160
 655 003e 07B0     		add	sp, sp, #28
 656              	.LCFI17:
 657              		.cfi_def_cfa_offset 12
 658              		@ sp needed
 659 0040 30BD     		pop	{r4, r5, pc}
 660              	.L39:
 661 0042 00BF     		.align	2
 662              	.L38:
 663 0044 00380240 		.word	1073887232
 664 0048 00200240 		.word	1073881088
 665              		.cfi_endproc
 666              	.LFE142:
 668              		.section	.text.BSP_LED_DeInit,"ax",%progbits
 669              		.align	1
 670              		.global	BSP_LED_DeInit
 671              		.syntax unified
 672              		.thumb
 673              		.thumb_func
 675              	BSP_LED_DeInit:
 676              	.LVL45:
 677              	.LFB143:
 206:Drivers/BSP/STM32746G-Discovery/stm32746g_discovery.c ****   GPIO_InitTypeDef  gpio_init_structure;
 678              		.loc 1 206 1 is_stmt 1 view -0
 679              		.cfi_startproc
 680              		@ args = 0, pretend = 0, frame = 24
 681              		@ frame_needed = 0, uses_anonymous_args = 0
 207:Drivers/BSP/STM32746G-Discovery/stm32746g_discovery.c ****   GPIO_TypeDef*     gpio_led;
 682              		.loc 1 207 3 view .LVU162
 208:Drivers/BSP/STM32746G-Discovery/stm32746g_discovery.c **** 
 683              		.loc 1 208 3 view .LVU163
 210:Drivers/BSP/STM32746G-Discovery/stm32746g_discovery.c ****   {
 684              		.loc 1 210 3 view .LVU164
 210:Drivers/BSP/STM32746G-Discovery/stm32746g_discovery.c ****   {
 685              		.loc 1 210 6 is_stmt 0 view .LVU165
 686 0000 00B1     		cbz	r0, .L46
 687 0002 7047     		bx	lr
 688              	.L46:
 206:Drivers/BSP/STM32746G-Discovery/stm32746g_discovery.c ****   GPIO_InitTypeDef  gpio_init_structure;
 689              		.loc 1 206 1 view .LVU166
 690 0004 10B5     		push	{r4, lr}
 691              	.LCFI18:
 692              		.cfi_def_cfa_offset 8
 693              		.cfi_offset 4, -8
 694              		.cfi_offset 14, -4
 695 0006 86B0     		sub	sp, sp, #24
 696              	.LCFI19:
ARM GAS  D:\cygwin64\tmp\ccVIozHZ.s 			page 26


 697              		.cfi_def_cfa_offset 32
 212:Drivers/BSP/STM32746G-Discovery/stm32746g_discovery.c ****     /* Turn off LED */
 698              		.loc 1 212 5 is_stmt 1 view .LVU167
 699              	.LVL46:
 214:Drivers/BSP/STM32746G-Discovery/stm32746g_discovery.c ****     /* Configure the GPIO_LED pin */
 700              		.loc 1 214 5 view .LVU168
 701 0008 064C     		ldr	r4, .L47
 702 000a 0022     		movs	r2, #0
 703 000c 0221     		movs	r1, #2
 704 000e 2046     		mov	r0, r4
 705              	.LVL47:
 214:Drivers/BSP/STM32746G-Discovery/stm32746g_discovery.c ****     /* Configure the GPIO_LED pin */
 706              		.loc 1 214 5 is_stmt 0 view .LVU169
 707 0010 FFF7FEFF 		bl	HAL_GPIO_WritePin
 708              	.LVL48:
 216:Drivers/BSP/STM32746G-Discovery/stm32746g_discovery.c ****     HAL_GPIO_DeInit(gpio_led, gpio_init_structure.Pin);
 709              		.loc 1 216 5 is_stmt 1 view .LVU170
 216:Drivers/BSP/STM32746G-Discovery/stm32746g_discovery.c ****     HAL_GPIO_DeInit(gpio_led, gpio_init_structure.Pin);
 710              		.loc 1 216 29 is_stmt 0 view .LVU171
 711 0014 0221     		movs	r1, #2
 712 0016 0191     		str	r1, [sp, #4]
 217:Drivers/BSP/STM32746G-Discovery/stm32746g_discovery.c ****   }
 713              		.loc 1 217 5 is_stmt 1 view .LVU172
 714 0018 2046     		mov	r0, r4
 715 001a FFF7FEFF 		bl	HAL_GPIO_DeInit
 716              	.LVL49:
 219:Drivers/BSP/STM32746G-Discovery/stm32746g_discovery.c **** 
 717              		.loc 1 219 1 is_stmt 0 view .LVU173
 718 001e 06B0     		add	sp, sp, #24
 719              	.LCFI20:
 720              		.cfi_def_cfa_offset 8
 721              		@ sp needed
 722 0020 10BD     		pop	{r4, pc}
 723              	.L48:
 724 0022 00BF     		.align	2
 725              	.L47:
 726 0024 00200240 		.word	1073881088
 727              		.cfi_endproc
 728              	.LFE143:
 730              		.section	.text.BSP_LED_On,"ax",%progbits
 731              		.align	1
 732              		.global	BSP_LED_On
 733              		.syntax unified
 734              		.thumb
 735              		.thumb_func
 737              	BSP_LED_On:
 738              	.LVL50:
 739              	.LFB144:
 229:Drivers/BSP/STM32746G-Discovery/stm32746g_discovery.c ****   GPIO_TypeDef*     gpio_led;
 740              		.loc 1 229 1 is_stmt 1 view -0
 741              		.cfi_startproc
 742              		@ args = 0, pretend = 0, frame = 0
 743              		@ frame_needed = 0, uses_anonymous_args = 0
 230:Drivers/BSP/STM32746G-Discovery/stm32746g_discovery.c **** 
 744              		.loc 1 230 3 view .LVU175
 232:Drivers/BSP/STM32746G-Discovery/stm32746g_discovery.c ****   {
 745              		.loc 1 232 3 view .LVU176
ARM GAS  D:\cygwin64\tmp\ccVIozHZ.s 			page 27


 232:Drivers/BSP/STM32746G-Discovery/stm32746g_discovery.c ****   {
 746              		.loc 1 232 6 is_stmt 0 view .LVU177
 747 0000 00B1     		cbz	r0, .L55
 748 0002 7047     		bx	lr
 749              	.L55:
 229:Drivers/BSP/STM32746G-Discovery/stm32746g_discovery.c ****   GPIO_TypeDef*     gpio_led;
 750              		.loc 1 229 1 view .LVU178
 751 0004 08B5     		push	{r3, lr}
 752              	.LCFI21:
 753              		.cfi_def_cfa_offset 8
 754              		.cfi_offset 3, -8
 755              		.cfi_offset 14, -4
 234:Drivers/BSP/STM32746G-Discovery/stm32746g_discovery.c ****     HAL_GPIO_WritePin(gpio_led, GPIO_PIN[Led], GPIO_PIN_SET);
 756              		.loc 1 234 5 is_stmt 1 view .LVU179
 757              	.LVL51:
 235:Drivers/BSP/STM32746G-Discovery/stm32746g_discovery.c ****   }
 758              		.loc 1 235 5 view .LVU180
 759 0006 0122     		movs	r2, #1
 760 0008 0221     		movs	r1, #2
 761 000a 0248     		ldr	r0, .L56
 762              	.LVL52:
 235:Drivers/BSP/STM32746G-Discovery/stm32746g_discovery.c ****   }
 763              		.loc 1 235 5 is_stmt 0 view .LVU181
 764 000c FFF7FEFF 		bl	HAL_GPIO_WritePin
 765              	.LVL53:
 237:Drivers/BSP/STM32746G-Discovery/stm32746g_discovery.c **** 
 766              		.loc 1 237 1 view .LVU182
 767 0010 08BD     		pop	{r3, pc}
 768              	.L57:
 769 0012 00BF     		.align	2
 770              	.L56:
 771 0014 00200240 		.word	1073881088
 772              		.cfi_endproc
 773              	.LFE144:
 775              		.section	.text.BSP_LED_Off,"ax",%progbits
 776              		.align	1
 777              		.global	BSP_LED_Off
 778              		.syntax unified
 779              		.thumb
 780              		.thumb_func
 782              	BSP_LED_Off:
 783              	.LVL54:
 784              	.LFB145:
 247:Drivers/BSP/STM32746G-Discovery/stm32746g_discovery.c ****   GPIO_TypeDef*     gpio_led;
 785              		.loc 1 247 1 is_stmt 1 view -0
 786              		.cfi_startproc
 787              		@ args = 0, pretend = 0, frame = 0
 788              		@ frame_needed = 0, uses_anonymous_args = 0
 248:Drivers/BSP/STM32746G-Discovery/stm32746g_discovery.c **** 
 789              		.loc 1 248 3 view .LVU184
 250:Drivers/BSP/STM32746G-Discovery/stm32746g_discovery.c ****   {
 790              		.loc 1 250 3 view .LVU185
 250:Drivers/BSP/STM32746G-Discovery/stm32746g_discovery.c ****   {
 791              		.loc 1 250 6 is_stmt 0 view .LVU186
 792 0000 00B1     		cbz	r0, .L64
 793 0002 7047     		bx	lr
 794              	.L64:
ARM GAS  D:\cygwin64\tmp\ccVIozHZ.s 			page 28


 247:Drivers/BSP/STM32746G-Discovery/stm32746g_discovery.c ****   GPIO_TypeDef*     gpio_led;
 795              		.loc 1 247 1 view .LVU187
 796 0004 08B5     		push	{r3, lr}
 797              	.LCFI22:
 798              		.cfi_def_cfa_offset 8
 799              		.cfi_offset 3, -8
 800              		.cfi_offset 14, -4
 252:Drivers/BSP/STM32746G-Discovery/stm32746g_discovery.c ****     HAL_GPIO_WritePin(gpio_led, GPIO_PIN[Led], GPIO_PIN_RESET);
 801              		.loc 1 252 5 is_stmt 1 view .LVU188
 802              	.LVL55:
 253:Drivers/BSP/STM32746G-Discovery/stm32746g_discovery.c ****   }
 803              		.loc 1 253 5 view .LVU189
 804 0006 0022     		movs	r2, #0
 805 0008 0221     		movs	r1, #2
 806 000a 0248     		ldr	r0, .L65
 807              	.LVL56:
 253:Drivers/BSP/STM32746G-Discovery/stm32746g_discovery.c ****   }
 808              		.loc 1 253 5 is_stmt 0 view .LVU190
 809 000c FFF7FEFF 		bl	HAL_GPIO_WritePin
 810              	.LVL57:
 255:Drivers/BSP/STM32746G-Discovery/stm32746g_discovery.c **** 
 811              		.loc 1 255 1 view .LVU191
 812 0010 08BD     		pop	{r3, pc}
 813              	.L66:
 814 0012 00BF     		.align	2
 815              	.L65:
 816 0014 00200240 		.word	1073881088
 817              		.cfi_endproc
 818              	.LFE145:
 820              		.section	.text.BSP_LED_Toggle,"ax",%progbits
 821              		.align	1
 822              		.global	BSP_LED_Toggle
 823              		.syntax unified
 824              		.thumb
 825              		.thumb_func
 827              	BSP_LED_Toggle:
 828              	.LVL58:
 829              	.LFB146:
 265:Drivers/BSP/STM32746G-Discovery/stm32746g_discovery.c ****   GPIO_TypeDef*     gpio_led;
 830              		.loc 1 265 1 is_stmt 1 view -0
 831              		.cfi_startproc
 832              		@ args = 0, pretend = 0, frame = 0
 833              		@ frame_needed = 0, uses_anonymous_args = 0
 266:Drivers/BSP/STM32746G-Discovery/stm32746g_discovery.c **** 
 834              		.loc 1 266 3 view .LVU193
 268:Drivers/BSP/STM32746G-Discovery/stm32746g_discovery.c ****   {
 835              		.loc 1 268 3 view .LVU194
 268:Drivers/BSP/STM32746G-Discovery/stm32746g_discovery.c ****   {
 836              		.loc 1 268 6 is_stmt 0 view .LVU195
 837 0000 00B1     		cbz	r0, .L73
 838 0002 7047     		bx	lr
 839              	.L73:
 265:Drivers/BSP/STM32746G-Discovery/stm32746g_discovery.c ****   GPIO_TypeDef*     gpio_led;
 840              		.loc 1 265 1 view .LVU196
 841 0004 08B5     		push	{r3, lr}
 842              	.LCFI23:
 843              		.cfi_def_cfa_offset 8
ARM GAS  D:\cygwin64\tmp\ccVIozHZ.s 			page 29


 844              		.cfi_offset 3, -8
 845              		.cfi_offset 14, -4
 270:Drivers/BSP/STM32746G-Discovery/stm32746g_discovery.c ****     HAL_GPIO_TogglePin(gpio_led, GPIO_PIN[Led]);
 846              		.loc 1 270 5 is_stmt 1 view .LVU197
 847              	.LVL59:
 271:Drivers/BSP/STM32746G-Discovery/stm32746g_discovery.c ****   }
 848              		.loc 1 271 5 view .LVU198
 849 0006 0221     		movs	r1, #2
 850 0008 0148     		ldr	r0, .L74
 851              	.LVL60:
 271:Drivers/BSP/STM32746G-Discovery/stm32746g_discovery.c ****   }
 852              		.loc 1 271 5 is_stmt 0 view .LVU199
 853 000a FFF7FEFF 		bl	HAL_GPIO_TogglePin
 854              	.LVL61:
 273:Drivers/BSP/STM32746G-Discovery/stm32746g_discovery.c **** 
 855              		.loc 1 273 1 view .LVU200
 856 000e 08BD     		pop	{r3, pc}
 857              	.L75:
 858              		.align	2
 859              	.L74:
 860 0010 00200240 		.word	1073881088
 861              		.cfi_endproc
 862              	.LFE146:
 864              		.section	.text.BSP_PB_Init,"ax",%progbits
 865              		.align	1
 866              		.global	BSP_PB_Init
 867              		.syntax unified
 868              		.thumb
 869              		.thumb_func
 871              	BSP_PB_Init:
 872              	.LVL62:
 873              	.LFB147:
 293:Drivers/BSP/STM32746G-Discovery/stm32746g_discovery.c ****   GPIO_InitTypeDef gpio_init_structure;
 874              		.loc 1 293 1 is_stmt 1 view -0
 875              		.cfi_startproc
 876              		@ args = 0, pretend = 0, frame = 32
 877              		@ frame_needed = 0, uses_anonymous_args = 0
 293:Drivers/BSP/STM32746G-Discovery/stm32746g_discovery.c ****   GPIO_InitTypeDef gpio_init_structure;
 878              		.loc 1 293 1 is_stmt 0 view .LVU202
 879 0000 30B5     		push	{r4, r5, lr}
 880              	.LCFI24:
 881              		.cfi_def_cfa_offset 12
 882              		.cfi_offset 4, -12
 883              		.cfi_offset 5, -8
 884              		.cfi_offset 14, -4
 885 0002 89B0     		sub	sp, sp, #36
 886              	.LCFI25:
 887              		.cfi_def_cfa_offset 48
 888 0004 0C46     		mov	r4, r1
 294:Drivers/BSP/STM32746G-Discovery/stm32746g_discovery.c ****   
 889              		.loc 1 294 3 is_stmt 1 view .LVU203
 297:Drivers/BSP/STM32746G-Discovery/stm32746g_discovery.c ****   
 890              		.loc 1 297 3 view .LVU204
 297:Drivers/BSP/STM32746G-Discovery/stm32746g_discovery.c ****   
 891              		.loc 1 297 3 view .LVU205
 892 0006 0546     		mov	r5, r0
 893 0008 70B9     		cbnz	r0, .L77
ARM GAS  D:\cygwin64\tmp\ccVIozHZ.s 			page 30


 297:Drivers/BSP/STM32746G-Discovery/stm32746g_discovery.c ****   
 894              		.loc 1 297 3 discriminator 1 view .LVU206
 895              	.LBB7:
 297:Drivers/BSP/STM32746G-Discovery/stm32746g_discovery.c ****   
 896              		.loc 1 297 3 discriminator 1 view .LVU207
 297:Drivers/BSP/STM32746G-Discovery/stm32746g_discovery.c ****   
 897              		.loc 1 297 3 discriminator 1 view .LVU208
 898 000a 2C4B     		ldr	r3, .L88
 899 000c 1A6B     		ldr	r2, [r3, #48]
 900 000e 42F48072 		orr	r2, r2, #256
 901 0012 1A63     		str	r2, [r3, #48]
 297:Drivers/BSP/STM32746G-Discovery/stm32746g_discovery.c ****   
 902              		.loc 1 297 3 discriminator 1 view .LVU209
 903 0014 1B6B     		ldr	r3, [r3, #48]
 904 0016 03F48073 		and	r3, r3, #256
 905 001a 0093     		str	r3, [sp]
 297:Drivers/BSP/STM32746G-Discovery/stm32746g_discovery.c ****   
 906              		.loc 1 297 3 discriminator 1 view .LVU210
 907 001c 009B     		ldr	r3, [sp]
 908              	.LBE7:
 297:Drivers/BSP/STM32746G-Discovery/stm32746g_discovery.c ****   
 909              		.loc 1 297 3 discriminator 1 view .LVU211
 910              	.L78:
 297:Drivers/BSP/STM32746G-Discovery/stm32746g_discovery.c ****   
 911              		.loc 1 297 3 discriminator 7 view .LVU212
 297:Drivers/BSP/STM32746G-Discovery/stm32746g_discovery.c ****   
 912              		.loc 1 297 3 discriminator 7 view .LVU213
 299:Drivers/BSP/STM32746G-Discovery/stm32746g_discovery.c ****   {
 913              		.loc 1 299 3 view .LVU214
 299:Drivers/BSP/STM32746G-Discovery/stm32746g_discovery.c ****   {
 914              		.loc 1 299 5 is_stmt 0 view .LVU215
 915 001e DCB1     		cbz	r4, .L85
 916              	.LVL63:
 917              	.L80:
 309:Drivers/BSP/STM32746G-Discovery/stm32746g_discovery.c ****   {
 918              		.loc 1 309 3 is_stmt 1 view .LVU216
 309:Drivers/BSP/STM32746G-Discovery/stm32746g_discovery.c ****   {
 919              		.loc 1 309 5 is_stmt 0 view .LVU217
 920 0020 012C     		cmp	r4, #1
 921 0022 29D0     		beq	.L86
 922              	.LVL64:
 923              	.L76:
 331:Drivers/BSP/STM32746G-Discovery/stm32746g_discovery.c **** 
 924              		.loc 1 331 1 view .LVU218
 925 0024 09B0     		add	sp, sp, #36
 926              	.LCFI26:
 927              		.cfi_remember_state
 928              		.cfi_def_cfa_offset 12
 929              		@ sp needed
 930 0026 30BD     		pop	{r4, r5, pc}
 931              	.LVL65:
 932              	.L77:
 933              	.LCFI27:
 934              		.cfi_restore_state
 297:Drivers/BSP/STM32746G-Discovery/stm32746g_discovery.c ****   
 935              		.loc 1 297 3 is_stmt 1 discriminator 2 view .LVU219
 936 0028 0128     		cmp	r0, #1
ARM GAS  D:\cygwin64\tmp\ccVIozHZ.s 			page 31


 937 002a 0AD0     		beq	.L87
 297:Drivers/BSP/STM32746G-Discovery/stm32746g_discovery.c ****   
 938              		.loc 1 297 3 discriminator 5 view .LVU220
 939              	.LBB8:
 297:Drivers/BSP/STM32746G-Discovery/stm32746g_discovery.c ****   
 940              		.loc 1 297 3 discriminator 5 view .LVU221
 297:Drivers/BSP/STM32746G-Discovery/stm32746g_discovery.c ****   
 941              		.loc 1 297 3 discriminator 5 view .LVU222
 942 002c 234B     		ldr	r3, .L88
 943 002e 1A6B     		ldr	r2, [r3, #48]
 944 0030 42F48072 		orr	r2, r2, #256
 945 0034 1A63     		str	r2, [r3, #48]
 297:Drivers/BSP/STM32746G-Discovery/stm32746g_discovery.c ****   
 946              		.loc 1 297 3 discriminator 5 view .LVU223
 947 0036 1B6B     		ldr	r3, [r3, #48]
 948 0038 03F48073 		and	r3, r3, #256
 949 003c 0293     		str	r3, [sp, #8]
 297:Drivers/BSP/STM32746G-Discovery/stm32746g_discovery.c ****   
 950              		.loc 1 297 3 discriminator 5 view .LVU224
 951 003e 029B     		ldr	r3, [sp, #8]
 952 0040 EDE7     		b	.L78
 953              	.L87:
 954              	.LBE8:
 297:Drivers/BSP/STM32746G-Discovery/stm32746g_discovery.c ****   
 955              		.loc 1 297 3 discriminator 4 view .LVU225
 956              	.LBB9:
 297:Drivers/BSP/STM32746G-Discovery/stm32746g_discovery.c ****   
 957              		.loc 1 297 3 discriminator 4 view .LVU226
 297:Drivers/BSP/STM32746G-Discovery/stm32746g_discovery.c ****   
 958              		.loc 1 297 3 discriminator 4 view .LVU227
 959 0042 1E4B     		ldr	r3, .L88
 960 0044 1A6B     		ldr	r2, [r3, #48]
 961 0046 42F48072 		orr	r2, r2, #256
 962 004a 1A63     		str	r2, [r3, #48]
 297:Drivers/BSP/STM32746G-Discovery/stm32746g_discovery.c ****   
 963              		.loc 1 297 3 discriminator 4 view .LVU228
 964 004c 1B6B     		ldr	r3, [r3, #48]
 965 004e 03F48073 		and	r3, r3, #256
 966 0052 0193     		str	r3, [sp, #4]
 297:Drivers/BSP/STM32746G-Discovery/stm32746g_discovery.c ****   
 967              		.loc 1 297 3 discriminator 4 view .LVU229
 968 0054 019B     		ldr	r3, [sp, #4]
 969              	.LBE9:
 297:Drivers/BSP/STM32746G-Discovery/stm32746g_discovery.c ****   
 970              		.loc 1 297 3 discriminator 4 view .LVU230
 971 0056 E2E7     		b	.L78
 972              	.L85:
 302:Drivers/BSP/STM32746G-Discovery/stm32746g_discovery.c ****     gpio_init_structure.Mode = GPIO_MODE_INPUT;
 973              		.loc 1 302 5 view .LVU231
 302:Drivers/BSP/STM32746G-Discovery/stm32746g_discovery.c ****     gpio_init_structure.Mode = GPIO_MODE_INPUT;
 974              		.loc 1 302 41 is_stmt 0 view .LVU232
 975 0058 194B     		ldr	r3, .L88+4
 976 005a 33F81530 		ldrh	r3, [r3, r5, lsl #1]
 302:Drivers/BSP/STM32746G-Discovery/stm32746g_discovery.c ****     gpio_init_structure.Mode = GPIO_MODE_INPUT;
 977              		.loc 1 302 29 view .LVU233
 978 005e 0393     		str	r3, [sp, #12]
 303:Drivers/BSP/STM32746G-Discovery/stm32746g_discovery.c ****     gpio_init_structure.Pull = GPIO_NOPULL;
ARM GAS  D:\cygwin64\tmp\ccVIozHZ.s 			page 32


 979              		.loc 1 303 5 is_stmt 1 view .LVU234
 303:Drivers/BSP/STM32746G-Discovery/stm32746g_discovery.c ****     gpio_init_structure.Pull = GPIO_NOPULL;
 980              		.loc 1 303 30 is_stmt 0 view .LVU235
 981 0060 0023     		movs	r3, #0
 982 0062 0493     		str	r3, [sp, #16]
 304:Drivers/BSP/STM32746G-Discovery/stm32746g_discovery.c ****     gpio_init_structure.Speed = GPIO_SPEED_FAST;
 983              		.loc 1 304 5 is_stmt 1 view .LVU236
 304:Drivers/BSP/STM32746G-Discovery/stm32746g_discovery.c ****     gpio_init_structure.Speed = GPIO_SPEED_FAST;
 984              		.loc 1 304 30 is_stmt 0 view .LVU237
 985 0064 0593     		str	r3, [sp, #20]
 305:Drivers/BSP/STM32746G-Discovery/stm32746g_discovery.c ****     HAL_GPIO_Init(BUTTON_PORT[Button], &gpio_init_structure);
 986              		.loc 1 305 5 is_stmt 1 view .LVU238
 305:Drivers/BSP/STM32746G-Discovery/stm32746g_discovery.c ****     HAL_GPIO_Init(BUTTON_PORT[Button], &gpio_init_structure);
 987              		.loc 1 305 31 is_stmt 0 view .LVU239
 988 0066 0223     		movs	r3, #2
 989 0068 0693     		str	r3, [sp, #24]
 306:Drivers/BSP/STM32746G-Discovery/stm32746g_discovery.c ****   }
 990              		.loc 1 306 5 is_stmt 1 view .LVU240
 991 006a 03A9     		add	r1, sp, #12
 992              	.LVL66:
 306:Drivers/BSP/STM32746G-Discovery/stm32746g_discovery.c ****   }
 993              		.loc 1 306 5 is_stmt 0 view .LVU241
 994 006c 154B     		ldr	r3, .L88+8
 995 006e 53F82500 		ldr	r0, [r3, r5, lsl #2]
 996              	.LVL67:
 306:Drivers/BSP/STM32746G-Discovery/stm32746g_discovery.c ****   }
 997              		.loc 1 306 5 view .LVU242
 998 0072 FFF7FEFF 		bl	HAL_GPIO_Init
 999              	.LVL68:
 1000 0076 D3E7     		b	.L80
 1001              	.L86:
 312:Drivers/BSP/STM32746G-Discovery/stm32746g_discovery.c ****     gpio_init_structure.Pull = GPIO_NOPULL;
 1002              		.loc 1 312 5 is_stmt 1 view .LVU243
 312:Drivers/BSP/STM32746G-Discovery/stm32746g_discovery.c ****     gpio_init_structure.Pull = GPIO_NOPULL;
 1003              		.loc 1 312 41 is_stmt 0 view .LVU244
 1004 0078 114B     		ldr	r3, .L88+4
 1005 007a 33F81530 		ldrh	r3, [r3, r5, lsl #1]
 312:Drivers/BSP/STM32746G-Discovery/stm32746g_discovery.c ****     gpio_init_structure.Pull = GPIO_NOPULL;
 1006              		.loc 1 312 29 view .LVU245
 1007 007e 0393     		str	r3, [sp, #12]
 313:Drivers/BSP/STM32746G-Discovery/stm32746g_discovery.c ****     gpio_init_structure.Speed = GPIO_SPEED_FAST;
 1008              		.loc 1 313 5 is_stmt 1 view .LVU246
 313:Drivers/BSP/STM32746G-Discovery/stm32746g_discovery.c ****     gpio_init_structure.Speed = GPIO_SPEED_FAST;
 1009              		.loc 1 313 30 is_stmt 0 view .LVU247
 1010 0080 0023     		movs	r3, #0
 1011 0082 0593     		str	r3, [sp, #20]
 314:Drivers/BSP/STM32746G-Discovery/stm32746g_discovery.c ****     
 1012              		.loc 1 314 5 is_stmt 1 view .LVU248
 314:Drivers/BSP/STM32746G-Discovery/stm32746g_discovery.c ****     
 1013              		.loc 1 314 31 is_stmt 0 view .LVU249
 1014 0084 0223     		movs	r3, #2
 1015 0086 0693     		str	r3, [sp, #24]
 316:Drivers/BSP/STM32746G-Discovery/stm32746g_discovery.c ****     {
 1016              		.loc 1 316 5 is_stmt 1 view .LVU250
 316:Drivers/BSP/STM32746G-Discovery/stm32746g_discovery.c ****     {
 1017              		.loc 1 316 7 is_stmt 0 view .LVU251
 1018 0088 A5B1     		cbz	r5, .L82
ARM GAS  D:\cygwin64\tmp\ccVIozHZ.s 			page 33


 318:Drivers/BSP/STM32746G-Discovery/stm32746g_discovery.c ****     }
 1019              		.loc 1 318 7 is_stmt 1 view .LVU252
 318:Drivers/BSP/STM32746G-Discovery/stm32746g_discovery.c ****     }
 1020              		.loc 1 318 32 is_stmt 0 view .LVU253
 1021 008a 4FF40413 		mov	r3, #2162688
 1022 008e 0493     		str	r3, [sp, #16]
 1023              	.L83:
 325:Drivers/BSP/STM32746G-Discovery/stm32746g_discovery.c ****     
 1024              		.loc 1 325 5 is_stmt 1 view .LVU254
 1025 0090 03A9     		add	r1, sp, #12
 1026 0092 0C4B     		ldr	r3, .L88+8
 1027 0094 53F82500 		ldr	r0, [r3, r5, lsl #2]
 1028 0098 FFF7FEFF 		bl	HAL_GPIO_Init
 1029              	.LVL69:
 328:Drivers/BSP/STM32746G-Discovery/stm32746g_discovery.c ****     HAL_NVIC_EnableIRQ((IRQn_Type)(BUTTON_IRQn[Button]));
 1030              		.loc 1 328 5 view .LVU255
 328:Drivers/BSP/STM32746G-Discovery/stm32746g_discovery.c ****     HAL_NVIC_EnableIRQ((IRQn_Type)(BUTTON_IRQn[Button]));
 1031              		.loc 1 328 49 is_stmt 0 view .LVU256
 1032 009c 0A4B     		ldr	r3, .L88+12
 328:Drivers/BSP/STM32746G-Discovery/stm32746g_discovery.c ****     HAL_NVIC_EnableIRQ((IRQn_Type)(BUTTON_IRQn[Button]));
 1033              		.loc 1 328 5 view .LVU257
 1034 009e 13F91540 		ldrsb	r4, [r3, r5, lsl #1]
 1035              	.LVL70:
 328:Drivers/BSP/STM32746G-Discovery/stm32746g_discovery.c ****     HAL_NVIC_EnableIRQ((IRQn_Type)(BUTTON_IRQn[Button]));
 1036              		.loc 1 328 5 view .LVU258
 1037 00a2 0022     		movs	r2, #0
 1038 00a4 0F21     		movs	r1, #15
 1039 00a6 2046     		mov	r0, r4
 1040 00a8 FFF7FEFF 		bl	HAL_NVIC_SetPriority
 1041              	.LVL71:
 329:Drivers/BSP/STM32746G-Discovery/stm32746g_discovery.c ****   }
 1042              		.loc 1 329 5 is_stmt 1 view .LVU259
 1043 00ac 2046     		mov	r0, r4
 1044 00ae FFF7FEFF 		bl	HAL_NVIC_EnableIRQ
 1045              	.LVL72:
 331:Drivers/BSP/STM32746G-Discovery/stm32746g_discovery.c **** 
 1046              		.loc 1 331 1 is_stmt 0 view .LVU260
 1047 00b2 B7E7     		b	.L76
 1048              	.L82:
 322:Drivers/BSP/STM32746G-Discovery/stm32746g_discovery.c ****     }
 1049              		.loc 1 322 7 is_stmt 1 view .LVU261
 322:Drivers/BSP/STM32746G-Discovery/stm32746g_discovery.c ****     }
 1050              		.loc 1 322 32 is_stmt 0 view .LVU262
 1051 00b4 4FF48813 		mov	r3, #1114112
 1052 00b8 0493     		str	r3, [sp, #16]
 1053 00ba E9E7     		b	.L83
 1054              	.L89:
 1055              		.align	2
 1056              	.L88:
 1057 00bc 00380240 		.word	1073887232
 1058 00c0 00000000 		.word	BUTTON_PIN
 1059 00c4 00000000 		.word	BUTTON_PORT
 1060 00c8 00000000 		.word	BUTTON_IRQn
 1061              		.cfi_endproc
 1062              	.LFE147:
 1064              		.section	.text.BSP_PB_DeInit,"ax",%progbits
 1065              		.align	1
ARM GAS  D:\cygwin64\tmp\ccVIozHZ.s 			page 34


 1066              		.global	BSP_PB_DeInit
 1067              		.syntax unified
 1068              		.thumb
 1069              		.thumb_func
 1071              	BSP_PB_DeInit:
 1072              	.LVL73:
 1073              	.LFB148:
 347:Drivers/BSP/STM32746G-Discovery/stm32746g_discovery.c ****     GPIO_InitTypeDef gpio_init_structure;
 1074              		.loc 1 347 1 is_stmt 1 view -0
 1075              		.cfi_startproc
 1076              		@ args = 0, pretend = 0, frame = 24
 1077              		@ frame_needed = 0, uses_anonymous_args = 0
 347:Drivers/BSP/STM32746G-Discovery/stm32746g_discovery.c ****     GPIO_InitTypeDef gpio_init_structure;
 1078              		.loc 1 347 1 is_stmt 0 view .LVU264
 1079 0000 30B5     		push	{r4, r5, lr}
 1080              	.LCFI28:
 1081              		.cfi_def_cfa_offset 12
 1082              		.cfi_offset 4, -12
 1083              		.cfi_offset 5, -8
 1084              		.cfi_offset 14, -4
 1085 0002 87B0     		sub	sp, sp, #28
 1086              	.LCFI29:
 1087              		.cfi_def_cfa_offset 40
 1088 0004 0446     		mov	r4, r0
 348:Drivers/BSP/STM32746G-Discovery/stm32746g_discovery.c **** 
 1089              		.loc 1 348 5 is_stmt 1 view .LVU265
 350:Drivers/BSP/STM32746G-Discovery/stm32746g_discovery.c ****     HAL_NVIC_DisableIRQ((IRQn_Type)(BUTTON_IRQn[Button]));
 1090              		.loc 1 350 5 view .LVU266
 350:Drivers/BSP/STM32746G-Discovery/stm32746g_discovery.c ****     HAL_NVIC_DisableIRQ((IRQn_Type)(BUTTON_IRQn[Button]));
 1091              		.loc 1 350 41 is_stmt 0 view .LVU267
 1092 0006 084B     		ldr	r3, .L92
 1093 0008 33F81050 		ldrh	r5, [r3, r0, lsl #1]
 350:Drivers/BSP/STM32746G-Discovery/stm32746g_discovery.c ****     HAL_NVIC_DisableIRQ((IRQn_Type)(BUTTON_IRQn[Button]));
 1094              		.loc 1 350 29 view .LVU268
 1095 000c 0195     		str	r5, [sp, #4]
 351:Drivers/BSP/STM32746G-Discovery/stm32746g_discovery.c ****     HAL_GPIO_DeInit(BUTTON_PORT[Button], gpio_init_structure.Pin);
 1096              		.loc 1 351 5 is_stmt 1 view .LVU269
 1097 000e 074B     		ldr	r3, .L92+4
 1098 0010 13F91000 		ldrsb	r0, [r3, r0, lsl #1]
 1099              	.LVL74:
 351:Drivers/BSP/STM32746G-Discovery/stm32746g_discovery.c ****     HAL_GPIO_DeInit(BUTTON_PORT[Button], gpio_init_structure.Pin);
 1100              		.loc 1 351 5 is_stmt 0 view .LVU270
 1101 0014 FFF7FEFF 		bl	HAL_NVIC_DisableIRQ
 1102              	.LVL75:
 352:Drivers/BSP/STM32746G-Discovery/stm32746g_discovery.c **** }
 1103              		.loc 1 352 5 is_stmt 1 view .LVU271
 1104 0018 2946     		mov	r1, r5
 1105 001a 054B     		ldr	r3, .L92+8
 1106 001c 53F82400 		ldr	r0, [r3, r4, lsl #2]
 1107 0020 FFF7FEFF 		bl	HAL_GPIO_DeInit
 1108              	.LVL76:
 353:Drivers/BSP/STM32746G-Discovery/stm32746g_discovery.c **** 
 1109              		.loc 1 353 1 is_stmt 0 view .LVU272
 1110 0024 07B0     		add	sp, sp, #28
 1111              	.LCFI30:
 1112              		.cfi_def_cfa_offset 12
 1113              		@ sp needed
ARM GAS  D:\cygwin64\tmp\ccVIozHZ.s 			page 35


 1114 0026 30BD     		pop	{r4, r5, pc}
 1115              	.LVL77:
 1116              	.L93:
 353:Drivers/BSP/STM32746G-Discovery/stm32746g_discovery.c **** 
 1117              		.loc 1 353 1 view .LVU273
 1118              		.align	2
 1119              	.L92:
 1120 0028 00000000 		.word	BUTTON_PIN
 1121 002c 00000000 		.word	BUTTON_IRQn
 1122 0030 00000000 		.word	BUTTON_PORT
 1123              		.cfi_endproc
 1124              	.LFE148:
 1126              		.section	.text.BSP_PB_GetState,"ax",%progbits
 1127              		.align	1
 1128              		.global	BSP_PB_GetState
 1129              		.syntax unified
 1130              		.thumb
 1131              		.thumb_func
 1133              	BSP_PB_GetState:
 1134              	.LVL78:
 1135              	.LFB149:
 369:Drivers/BSP/STM32746G-Discovery/stm32746g_discovery.c ****   return HAL_GPIO_ReadPin(BUTTON_PORT[Button], BUTTON_PIN[Button]);
 1136              		.loc 1 369 1 is_stmt 1 view -0
 1137              		.cfi_startproc
 1138              		@ args = 0, pretend = 0, frame = 0
 1139              		@ frame_needed = 0, uses_anonymous_args = 0
 369:Drivers/BSP/STM32746G-Discovery/stm32746g_discovery.c ****   return HAL_GPIO_ReadPin(BUTTON_PORT[Button], BUTTON_PIN[Button]);
 1140              		.loc 1 369 1 is_stmt 0 view .LVU275
 1141 0000 08B5     		push	{r3, lr}
 1142              	.LCFI31:
 1143              		.cfi_def_cfa_offset 8
 1144              		.cfi_offset 3, -8
 1145              		.cfi_offset 14, -4
 370:Drivers/BSP/STM32746G-Discovery/stm32746g_discovery.c **** }
 1146              		.loc 1 370 3 is_stmt 1 view .LVU276
 370:Drivers/BSP/STM32746G-Discovery/stm32746g_discovery.c **** }
 1147              		.loc 1 370 10 is_stmt 0 view .LVU277
 1148 0002 044B     		ldr	r3, .L96
 1149 0004 33F81010 		ldrh	r1, [r3, r0, lsl #1]
 1150 0008 034B     		ldr	r3, .L96+4
 1151 000a 53F82000 		ldr	r0, [r3, r0, lsl #2]
 1152              	.LVL79:
 370:Drivers/BSP/STM32746G-Discovery/stm32746g_discovery.c **** }
 1153              		.loc 1 370 10 view .LVU278
 1154 000e FFF7FEFF 		bl	HAL_GPIO_ReadPin
 1155              	.LVL80:
 371:Drivers/BSP/STM32746G-Discovery/stm32746g_discovery.c **** 
 1156              		.loc 1 371 1 view .LVU279
 1157 0012 08BD     		pop	{r3, pc}
 1158              	.L97:
 1159              		.align	2
 1160              	.L96:
 1161 0014 00000000 		.word	BUTTON_PIN
 1162 0018 00000000 		.word	BUTTON_PORT
 1163              		.cfi_endproc
 1164              	.LFE149:
 1166              		.section	.text.BSP_COM_Init,"ax",%progbits
ARM GAS  D:\cygwin64\tmp\ccVIozHZ.s 			page 36


 1167              		.align	1
 1168              		.global	BSP_COM_Init
 1169              		.syntax unified
 1170              		.thumb
 1171              		.thumb_func
 1173              	BSP_COM_Init:
 1174              	.LVL81:
 1175              	.LFB150:
 384:Drivers/BSP/STM32746G-Discovery/stm32746g_discovery.c ****   GPIO_InitTypeDef gpio_init_structure;
 1176              		.loc 1 384 1 is_stmt 1 view -0
 1177              		.cfi_startproc
 1178              		@ args = 0, pretend = 0, frame = 32
 1179              		@ frame_needed = 0, uses_anonymous_args = 0
 384:Drivers/BSP/STM32746G-Discovery/stm32746g_discovery.c ****   GPIO_InitTypeDef gpio_init_structure;
 1180              		.loc 1 384 1 is_stmt 0 view .LVU281
 1181 0000 F0B5     		push	{r4, r5, r6, r7, lr}
 1182              	.LCFI32:
 1183              		.cfi_def_cfa_offset 20
 1184              		.cfi_offset 4, -20
 1185              		.cfi_offset 5, -16
 1186              		.cfi_offset 6, -12
 1187              		.cfi_offset 7, -8
 1188              		.cfi_offset 14, -4
 1189 0002 89B0     		sub	sp, sp, #36
 1190              	.LCFI33:
 1191              		.cfi_def_cfa_offset 56
 1192 0004 0C46     		mov	r4, r1
 385:Drivers/BSP/STM32746G-Discovery/stm32746g_discovery.c **** 
 1193              		.loc 1 385 3 is_stmt 1 view .LVU282
 388:Drivers/BSP/STM32746G-Discovery/stm32746g_discovery.c ****   DISCOVERY_COMx_RX_GPIO_CLK_ENABLE(COM);
 1194              		.loc 1 388 3 view .LVU283
 388:Drivers/BSP/STM32746G-Discovery/stm32746g_discovery.c ****   DISCOVERY_COMx_RX_GPIO_CLK_ENABLE(COM);
 1195              		.loc 1 388 3 view .LVU284
 1196 0006 0546     		mov	r5, r0
 1197 0008 90B9     		cbnz	r0, .L99
 388:Drivers/BSP/STM32746G-Discovery/stm32746g_discovery.c ****   DISCOVERY_COMx_RX_GPIO_CLK_ENABLE(COM);
 1198              		.loc 1 388 3 discriminator 1 view .LVU285
 1199              	.LBB10:
 388:Drivers/BSP/STM32746G-Discovery/stm32746g_discovery.c ****   DISCOVERY_COMx_RX_GPIO_CLK_ENABLE(COM);
 1200              		.loc 1 388 3 discriminator 1 view .LVU286
 388:Drivers/BSP/STM32746G-Discovery/stm32746g_discovery.c ****   DISCOVERY_COMx_RX_GPIO_CLK_ENABLE(COM);
 1201              		.loc 1 388 3 discriminator 1 view .LVU287
 1202 000a 204B     		ldr	r3, .L102
 1203 000c 1A6B     		ldr	r2, [r3, #48]
 1204 000e 42F00102 		orr	r2, r2, #1
 1205 0012 1A63     		str	r2, [r3, #48]
 388:Drivers/BSP/STM32746G-Discovery/stm32746g_discovery.c ****   DISCOVERY_COMx_RX_GPIO_CLK_ENABLE(COM);
 1206              		.loc 1 388 3 discriminator 1 view .LVU288
 1207 0014 1A6B     		ldr	r2, [r3, #48]
 1208 0016 02F00102 		and	r2, r2, #1
 1209 001a 0092     		str	r2, [sp]
 388:Drivers/BSP/STM32746G-Discovery/stm32746g_discovery.c ****   DISCOVERY_COMx_RX_GPIO_CLK_ENABLE(COM);
 1210              		.loc 1 388 3 discriminator 1 view .LVU289
 1211 001c 009A     		ldr	r2, [sp]
 1212              	.LBE10:
 388:Drivers/BSP/STM32746G-Discovery/stm32746g_discovery.c ****   DISCOVERY_COMx_RX_GPIO_CLK_ENABLE(COM);
 1213              		.loc 1 388 3 discriminator 3 view .LVU290
ARM GAS  D:\cygwin64\tmp\ccVIozHZ.s 			page 37


 388:Drivers/BSP/STM32746G-Discovery/stm32746g_discovery.c ****   DISCOVERY_COMx_RX_GPIO_CLK_ENABLE(COM);
 1214              		.loc 1 388 3 discriminator 3 view .LVU291
 389:Drivers/BSP/STM32746G-Discovery/stm32746g_discovery.c **** 
 1215              		.loc 1 389 3 view .LVU292
 389:Drivers/BSP/STM32746G-Discovery/stm32746g_discovery.c **** 
 1216              		.loc 1 389 3 view .LVU293
 389:Drivers/BSP/STM32746G-Discovery/stm32746g_discovery.c **** 
 1217              		.loc 1 389 3 discriminator 1 view .LVU294
 1218              	.LBB11:
 389:Drivers/BSP/STM32746G-Discovery/stm32746g_discovery.c **** 
 1219              		.loc 1 389 3 discriminator 1 view .LVU295
 389:Drivers/BSP/STM32746G-Discovery/stm32746g_discovery.c **** 
 1220              		.loc 1 389 3 discriminator 1 view .LVU296
 1221 001e 1A6B     		ldr	r2, [r3, #48]
 1222 0020 42F00202 		orr	r2, r2, #2
 1223 0024 1A63     		str	r2, [r3, #48]
 389:Drivers/BSP/STM32746G-Discovery/stm32746g_discovery.c **** 
 1224              		.loc 1 389 3 discriminator 1 view .LVU297
 1225 0026 1B6B     		ldr	r3, [r3, #48]
 1226 0028 03F00203 		and	r3, r3, #2
 1227 002c 0193     		str	r3, [sp, #4]
 389:Drivers/BSP/STM32746G-Discovery/stm32746g_discovery.c **** 
 1228              		.loc 1 389 3 discriminator 1 view .LVU298
 1229 002e 019B     		ldr	r3, [sp, #4]
 1230              	.L99:
 1231              	.LBE11:
 389:Drivers/BSP/STM32746G-Discovery/stm32746g_discovery.c **** 
 1232              		.loc 1 389 3 discriminator 3 view .LVU299
 389:Drivers/BSP/STM32746G-Discovery/stm32746g_discovery.c **** 
 1233              		.loc 1 389 3 discriminator 3 view .LVU300
 392:Drivers/BSP/STM32746G-Discovery/stm32746g_discovery.c **** 
 1234              		.loc 1 392 3 view .LVU301
 392:Drivers/BSP/STM32746G-Discovery/stm32746g_discovery.c **** 
 1235              		.loc 1 392 3 view .LVU302
 1236 0030 4DB9     		cbnz	r5, .L100
 392:Drivers/BSP/STM32746G-Discovery/stm32746g_discovery.c **** 
 1237              		.loc 1 392 3 discriminator 1 view .LVU303
 1238              	.LBB12:
 392:Drivers/BSP/STM32746G-Discovery/stm32746g_discovery.c **** 
 1239              		.loc 1 392 3 discriminator 1 view .LVU304
 392:Drivers/BSP/STM32746G-Discovery/stm32746g_discovery.c **** 
 1240              		.loc 1 392 3 discriminator 1 view .LVU305
 1241 0032 164B     		ldr	r3, .L102
 1242 0034 5A6C     		ldr	r2, [r3, #68]
 1243 0036 42F01002 		orr	r2, r2, #16
 1244 003a 5A64     		str	r2, [r3, #68]
 392:Drivers/BSP/STM32746G-Discovery/stm32746g_discovery.c **** 
 1245              		.loc 1 392 3 discriminator 1 view .LVU306
 1246 003c 5B6C     		ldr	r3, [r3, #68]
 1247 003e 03F01003 		and	r3, r3, #16
 1248 0042 0293     		str	r3, [sp, #8]
 392:Drivers/BSP/STM32746G-Discovery/stm32746g_discovery.c **** 
 1249              		.loc 1 392 3 discriminator 1 view .LVU307
 1250 0044 029B     		ldr	r3, [sp, #8]
 1251              	.L100:
 1252              	.LBE12:
 392:Drivers/BSP/STM32746G-Discovery/stm32746g_discovery.c **** 
ARM GAS  D:\cygwin64\tmp\ccVIozHZ.s 			page 38


 1253              		.loc 1 392 3 discriminator 3 view .LVU308
 392:Drivers/BSP/STM32746G-Discovery/stm32746g_discovery.c **** 
 1254              		.loc 1 392 3 discriminator 3 view .LVU309
 395:Drivers/BSP/STM32746G-Discovery/stm32746g_discovery.c ****   gpio_init_structure.Mode = GPIO_MODE_AF_PP;
 1255              		.loc 1 395 3 view .LVU310
 395:Drivers/BSP/STM32746G-Discovery/stm32746g_discovery.c ****   gpio_init_structure.Mode = GPIO_MODE_AF_PP;
 1256              		.loc 1 395 27 is_stmt 0 view .LVU311
 1257 0046 4FF40073 		mov	r3, #512
 1258 004a 0393     		str	r3, [sp, #12]
 396:Drivers/BSP/STM32746G-Discovery/stm32746g_discovery.c ****   gpio_init_structure.Speed = GPIO_SPEED_FAST;
 1259              		.loc 1 396 3 is_stmt 1 view .LVU312
 396:Drivers/BSP/STM32746G-Discovery/stm32746g_discovery.c ****   gpio_init_structure.Speed = GPIO_SPEED_FAST;
 1260              		.loc 1 396 28 is_stmt 0 view .LVU313
 1261 004c 0226     		movs	r6, #2
 1262 004e 0496     		str	r6, [sp, #16]
 397:Drivers/BSP/STM32746G-Discovery/stm32746g_discovery.c ****   gpio_init_structure.Pull = GPIO_PULLUP;
 1263              		.loc 1 397 3 is_stmt 1 view .LVU314
 397:Drivers/BSP/STM32746G-Discovery/stm32746g_discovery.c ****   gpio_init_structure.Pull = GPIO_PULLUP;
 1264              		.loc 1 397 29 is_stmt 0 view .LVU315
 1265 0050 0696     		str	r6, [sp, #24]
 398:Drivers/BSP/STM32746G-Discovery/stm32746g_discovery.c ****   gpio_init_structure.Alternate = COM_TX_AF[COM];
 1266              		.loc 1 398 3 is_stmt 1 view .LVU316
 398:Drivers/BSP/STM32746G-Discovery/stm32746g_discovery.c ****   gpio_init_structure.Alternate = COM_TX_AF[COM];
 1267              		.loc 1 398 28 is_stmt 0 view .LVU317
 1268 0052 0123     		movs	r3, #1
 1269 0054 0593     		str	r3, [sp, #20]
 399:Drivers/BSP/STM32746G-Discovery/stm32746g_discovery.c ****   HAL_GPIO_Init(COM_TX_PORT[COM], &gpio_init_structure);
 1270              		.loc 1 399 3 is_stmt 1 view .LVU318
 399:Drivers/BSP/STM32746G-Discovery/stm32746g_discovery.c ****   HAL_GPIO_Init(COM_TX_PORT[COM], &gpio_init_structure);
 1271              		.loc 1 399 33 is_stmt 0 view .LVU319
 1272 0056 0727     		movs	r7, #7
 1273 0058 0797     		str	r7, [sp, #28]
 400:Drivers/BSP/STM32746G-Discovery/stm32746g_discovery.c **** 
 1274              		.loc 1 400 3 is_stmt 1 view .LVU320
 1275 005a 03A9     		add	r1, sp, #12
 1276              	.LVL82:
 400:Drivers/BSP/STM32746G-Discovery/stm32746g_discovery.c **** 
 1277              		.loc 1 400 3 is_stmt 0 view .LVU321
 1278 005c 0C4B     		ldr	r3, .L102+4
 1279 005e 53F82500 		ldr	r0, [r3, r5, lsl #2]
 1280              	.LVL83:
 400:Drivers/BSP/STM32746G-Discovery/stm32746g_discovery.c **** 
 1281              		.loc 1 400 3 view .LVU322
 1282 0062 FFF7FEFF 		bl	HAL_GPIO_Init
 1283              	.LVL84:
 403:Drivers/BSP/STM32746G-Discovery/stm32746g_discovery.c ****   gpio_init_structure.Mode = GPIO_MODE_AF_PP;
 1284              		.loc 1 403 3 is_stmt 1 view .LVU323
 403:Drivers/BSP/STM32746G-Discovery/stm32746g_discovery.c ****   gpio_init_structure.Mode = GPIO_MODE_AF_PP;
 1285              		.loc 1 403 27 is_stmt 0 view .LVU324
 1286 0066 8023     		movs	r3, #128
 1287 0068 0393     		str	r3, [sp, #12]
 404:Drivers/BSP/STM32746G-Discovery/stm32746g_discovery.c ****   gpio_init_structure.Alternate = COM_RX_AF[COM];
 1288              		.loc 1 404 3 is_stmt 1 view .LVU325
 404:Drivers/BSP/STM32746G-Discovery/stm32746g_discovery.c ****   gpio_init_structure.Alternate = COM_RX_AF[COM];
 1289              		.loc 1 404 28 is_stmt 0 view .LVU326
 1290 006a 0496     		str	r6, [sp, #16]
 405:Drivers/BSP/STM32746G-Discovery/stm32746g_discovery.c ****   HAL_GPIO_Init(COM_RX_PORT[COM], &gpio_init_structure);
ARM GAS  D:\cygwin64\tmp\ccVIozHZ.s 			page 39


 1291              		.loc 1 405 3 is_stmt 1 view .LVU327
 405:Drivers/BSP/STM32746G-Discovery/stm32746g_discovery.c ****   HAL_GPIO_Init(COM_RX_PORT[COM], &gpio_init_structure);
 1292              		.loc 1 405 33 is_stmt 0 view .LVU328
 1293 006c 0797     		str	r7, [sp, #28]
 406:Drivers/BSP/STM32746G-Discovery/stm32746g_discovery.c **** 
 1294              		.loc 1 406 3 is_stmt 1 view .LVU329
 1295 006e 03A9     		add	r1, sp, #12
 1296 0070 084B     		ldr	r3, .L102+8
 1297 0072 53F82500 		ldr	r0, [r3, r5, lsl #2]
 1298 0076 FFF7FEFF 		bl	HAL_GPIO_Init
 1299              	.LVL85:
 409:Drivers/BSP/STM32746G-Discovery/stm32746g_discovery.c ****   HAL_UART_Init(huart);
 1300              		.loc 1 409 3 view .LVU330
 409:Drivers/BSP/STM32746G-Discovery/stm32746g_discovery.c ****   HAL_UART_Init(huart);
 1301              		.loc 1 409 30 is_stmt 0 view .LVU331
 1302 007a 074B     		ldr	r3, .L102+12
 1303 007c 53F82530 		ldr	r3, [r3, r5, lsl #2]
 409:Drivers/BSP/STM32746G-Discovery/stm32746g_discovery.c ****   HAL_UART_Init(huart);
 1304              		.loc 1 409 19 view .LVU332
 1305 0080 2360     		str	r3, [r4]
 410:Drivers/BSP/STM32746G-Discovery/stm32746g_discovery.c **** }
 1306              		.loc 1 410 3 is_stmt 1 view .LVU333
 1307 0082 2046     		mov	r0, r4
 1308 0084 FFF7FEFF 		bl	HAL_UART_Init
 1309              	.LVL86:
 411:Drivers/BSP/STM32746G-Discovery/stm32746g_discovery.c **** 
 1310              		.loc 1 411 1 is_stmt 0 view .LVU334
 1311 0088 09B0     		add	sp, sp, #36
 1312              	.LCFI34:
 1313              		.cfi_def_cfa_offset 20
 1314              		@ sp needed
 1315 008a F0BD     		pop	{r4, r5, r6, r7, pc}
 1316              	.LVL87:
 1317              	.L103:
 411:Drivers/BSP/STM32746G-Discovery/stm32746g_discovery.c **** 
 1318              		.loc 1 411 1 view .LVU335
 1319              		.align	2
 1320              	.L102:
 1321 008c 00380240 		.word	1073887232
 1322 0090 00000000 		.word	COM_TX_PORT
 1323 0094 00000000 		.word	COM_RX_PORT
 1324 0098 00000000 		.word	COM_USART
 1325              		.cfi_endproc
 1326              	.LFE150:
 1328              		.section	.text.BSP_COM_DeInit,"ax",%progbits
 1329              		.align	1
 1330              		.global	BSP_COM_DeInit
 1331              		.syntax unified
 1332              		.thumb
 1333              		.thumb_func
 1335              	BSP_COM_DeInit:
 1336              	.LVL88:
 1337              	.LFB151:
 424:Drivers/BSP/STM32746G-Discovery/stm32746g_discovery.c ****   /* USART configuration */
 1338              		.loc 1 424 1 is_stmt 1 view -0
 1339              		.cfi_startproc
 1340              		@ args = 0, pretend = 0, frame = 0
ARM GAS  D:\cygwin64\tmp\ccVIozHZ.s 			page 40


 1341              		@ frame_needed = 0, uses_anonymous_args = 0
 424:Drivers/BSP/STM32746G-Discovery/stm32746g_discovery.c ****   /* USART configuration */
 1342              		.loc 1 424 1 is_stmt 0 view .LVU337
 1343 0000 10B5     		push	{r4, lr}
 1344              	.LCFI35:
 1345              		.cfi_def_cfa_offset 8
 1346              		.cfi_offset 4, -8
 1347              		.cfi_offset 14, -4
 1348 0002 0446     		mov	r4, r0
 1349 0004 0846     		mov	r0, r1
 1350              	.LVL89:
 426:Drivers/BSP/STM32746G-Discovery/stm32746g_discovery.c ****   HAL_UART_DeInit(huart);
 1351              		.loc 1 426 3 is_stmt 1 view .LVU338
 426:Drivers/BSP/STM32746G-Discovery/stm32746g_discovery.c ****   HAL_UART_DeInit(huart);
 1352              		.loc 1 426 30 is_stmt 0 view .LVU339
 1353 0006 064B     		ldr	r3, .L107
 1354 0008 53F82430 		ldr	r3, [r3, r4, lsl #2]
 426:Drivers/BSP/STM32746G-Discovery/stm32746g_discovery.c ****   HAL_UART_DeInit(huart);
 1355              		.loc 1 426 19 view .LVU340
 1356 000c 0B60     		str	r3, [r1]
 427:Drivers/BSP/STM32746G-Discovery/stm32746g_discovery.c **** 
 1357              		.loc 1 427 3 is_stmt 1 view .LVU341
 1358 000e FFF7FEFF 		bl	HAL_UART_DeInit
 1359              	.LVL90:
 430:Drivers/BSP/STM32746G-Discovery/stm32746g_discovery.c **** 
 1360              		.loc 1 430 3 view .LVU342
 1361 0012 24B9     		cbnz	r4, .L104
 430:Drivers/BSP/STM32746G-Discovery/stm32746g_discovery.c **** 
 1362              		.loc 1 430 3 is_stmt 0 discriminator 1 view .LVU343
 1363 0014 034A     		ldr	r2, .L107+4
 1364 0016 536C     		ldr	r3, [r2, #68]
 1365 0018 23F01003 		bic	r3, r3, #16
 1366 001c 5364     		str	r3, [r2, #68]
 1367              	.L104:
 437:Drivers/BSP/STM32746G-Discovery/stm32746g_discovery.c **** 
 1368              		.loc 1 437 1 view .LVU344
 1369 001e 10BD     		pop	{r4, pc}
 1370              	.LVL91:
 1371              	.L108:
 437:Drivers/BSP/STM32746G-Discovery/stm32746g_discovery.c **** 
 1372              		.loc 1 437 1 view .LVU345
 1373              		.align	2
 1374              	.L107:
 1375 0020 00000000 		.word	COM_USART
 1376 0024 00380240 		.word	1073887232
 1377              		.cfi_endproc
 1378              	.LFE151:
 1380              		.section	.text.AUDIO_IO_Init,"ax",%progbits
 1381              		.align	1
 1382              		.global	AUDIO_IO_Init
 1383              		.syntax unified
 1384              		.thumb
 1385              		.thumb_func
 1387              	AUDIO_IO_Init:
 1388              	.LFB158:
 651:Drivers/BSP/STM32746G-Discovery/stm32746g_discovery.c **** 
 652:Drivers/BSP/STM32746G-Discovery/stm32746g_discovery.c **** /*******************************************************************************
ARM GAS  D:\cygwin64\tmp\ccVIozHZ.s 			page 41


 653:Drivers/BSP/STM32746G-Discovery/stm32746g_discovery.c ****                             LINK OPERATIONS
 654:Drivers/BSP/STM32746G-Discovery/stm32746g_discovery.c **** *******************************************************************************/
 655:Drivers/BSP/STM32746G-Discovery/stm32746g_discovery.c **** 
 656:Drivers/BSP/STM32746G-Discovery/stm32746g_discovery.c **** /********************************* LINK AUDIO *********************************/
 657:Drivers/BSP/STM32746G-Discovery/stm32746g_discovery.c **** 
 658:Drivers/BSP/STM32746G-Discovery/stm32746g_discovery.c **** /**
 659:Drivers/BSP/STM32746G-Discovery/stm32746g_discovery.c ****   * @brief  Initializes Audio low level.
 660:Drivers/BSP/STM32746G-Discovery/stm32746g_discovery.c ****   * @retval None
 661:Drivers/BSP/STM32746G-Discovery/stm32746g_discovery.c ****   */
 662:Drivers/BSP/STM32746G-Discovery/stm32746g_discovery.c **** void AUDIO_IO_Init(void) 
 663:Drivers/BSP/STM32746G-Discovery/stm32746g_discovery.c **** {
 1389              		.loc 1 663 1 is_stmt 1 view -0
 1390              		.cfi_startproc
 1391              		@ args = 0, pretend = 0, frame = 0
 1392              		@ frame_needed = 0, uses_anonymous_args = 0
 1393 0000 08B5     		push	{r3, lr}
 1394              	.LCFI36:
 1395              		.cfi_def_cfa_offset 8
 1396              		.cfi_offset 3, -8
 1397              		.cfi_offset 14, -4
 664:Drivers/BSP/STM32746G-Discovery/stm32746g_discovery.c ****   I2Cx_Init(&hI2cAudioHandler);
 1398              		.loc 1 664 3 view .LVU347
 1399 0002 0248     		ldr	r0, .L111
 1400 0004 FFF7FEFF 		bl	I2Cx_Init
 1401              	.LVL92:
 665:Drivers/BSP/STM32746G-Discovery/stm32746g_discovery.c **** }
 1402              		.loc 1 665 1 is_stmt 0 view .LVU348
 1403 0008 08BD     		pop	{r3, pc}
 1404              	.L112:
 1405 000a 00BF     		.align	2
 1406              	.L111:
 1407 000c 00000000 		.word	hI2cAudioHandler
 1408              		.cfi_endproc
 1409              	.LFE158:
 1411              		.section	.text.AUDIO_IO_DeInit,"ax",%progbits
 1412              		.align	1
 1413              		.global	AUDIO_IO_DeInit
 1414              		.syntax unified
 1415              		.thumb
 1416              		.thumb_func
 1418              	AUDIO_IO_DeInit:
 1419              	.LFB159:
 666:Drivers/BSP/STM32746G-Discovery/stm32746g_discovery.c **** 
 667:Drivers/BSP/STM32746G-Discovery/stm32746g_discovery.c **** /**
 668:Drivers/BSP/STM32746G-Discovery/stm32746g_discovery.c ****   * @brief  Deinitializes Audio low level.
 669:Drivers/BSP/STM32746G-Discovery/stm32746g_discovery.c ****   * @retval None
 670:Drivers/BSP/STM32746G-Discovery/stm32746g_discovery.c ****   */
 671:Drivers/BSP/STM32746G-Discovery/stm32746g_discovery.c **** void AUDIO_IO_DeInit(void)
 672:Drivers/BSP/STM32746G-Discovery/stm32746g_discovery.c **** {
 1420              		.loc 1 672 1 is_stmt 1 view -0
 1421              		.cfi_startproc
 1422              		@ args = 0, pretend = 0, frame = 0
 1423              		@ frame_needed = 0, uses_anonymous_args = 0
 1424              		@ link register save eliminated.
 673:Drivers/BSP/STM32746G-Discovery/stm32746g_discovery.c **** }
 1425              		.loc 1 673 1 view .LVU350
 1426 0000 7047     		bx	lr
ARM GAS  D:\cygwin64\tmp\ccVIozHZ.s 			page 42


 1427              		.cfi_endproc
 1428              	.LFE159:
 1430              		.section	.text.AUDIO_IO_Write,"ax",%progbits
 1431              		.align	1
 1432              		.global	AUDIO_IO_Write
 1433              		.syntax unified
 1434              		.thumb
 1435              		.thumb_func
 1437              	AUDIO_IO_Write:
 1438              	.LVL93:
 1439              	.LFB160:
 674:Drivers/BSP/STM32746G-Discovery/stm32746g_discovery.c **** 
 675:Drivers/BSP/STM32746G-Discovery/stm32746g_discovery.c **** /**
 676:Drivers/BSP/STM32746G-Discovery/stm32746g_discovery.c ****   * @brief  Writes a single data.
 677:Drivers/BSP/STM32746G-Discovery/stm32746g_discovery.c ****   * @param  Addr: I2C address
 678:Drivers/BSP/STM32746G-Discovery/stm32746g_discovery.c ****   * @param  Reg: Reg address 
 679:Drivers/BSP/STM32746G-Discovery/stm32746g_discovery.c ****   * @param  Value: Data to be written
 680:Drivers/BSP/STM32746G-Discovery/stm32746g_discovery.c ****   * @retval None
 681:Drivers/BSP/STM32746G-Discovery/stm32746g_discovery.c ****   */
 682:Drivers/BSP/STM32746G-Discovery/stm32746g_discovery.c **** void AUDIO_IO_Write(uint8_t Addr, uint16_t Reg, uint16_t Value)
 683:Drivers/BSP/STM32746G-Discovery/stm32746g_discovery.c **** {
 1440              		.loc 1 683 1 view -0
 1441              		.cfi_startproc
 1442              		@ args = 0, pretend = 0, frame = 8
 1443              		@ frame_needed = 0, uses_anonymous_args = 0
 1444              		.loc 1 683 1 is_stmt 0 view .LVU352
 1445 0000 00B5     		push	{lr}
 1446              	.LCFI37:
 1447              		.cfi_def_cfa_offset 4
 1448              		.cfi_offset 14, -4
 1449 0002 85B0     		sub	sp, sp, #20
 1450              	.LCFI38:
 1451              		.cfi_def_cfa_offset 24
 1452 0004 ADF80E20 		strh	r2, [sp, #14]	@ movhi
 684:Drivers/BSP/STM32746G-Discovery/stm32746g_discovery.c ****   uint16_t tmp = Value;
 1453              		.loc 1 684 3 is_stmt 1 view .LVU353
 1454              		.loc 1 684 12 is_stmt 0 view .LVU354
 1455 0008 92B2     		uxth	r2, r2
 1456              	.LVL94:
 685:Drivers/BSP/STM32746G-Discovery/stm32746g_discovery.c ****   
 686:Drivers/BSP/STM32746G-Discovery/stm32746g_discovery.c ****   Value = ((uint16_t)(tmp >> 8) & 0x00FF);
 1457              		.loc 1 686 3 is_stmt 1 view .LVU355
 1458              		.loc 1 686 12 is_stmt 0 view .LVU356
 1459 000a 130A     		lsrs	r3, r2, #8
 1460              		.loc 1 686 9 view .LVU357
 1461 000c ADF80E30 		strh	r3, [sp, #14]	@ movhi
 1462              	.LVL95:
 687:Drivers/BSP/STM32746G-Discovery/stm32746g_discovery.c ****   
 688:Drivers/BSP/STM32746G-Discovery/stm32746g_discovery.c ****   Value |= ((uint16_t)(tmp << 8)& 0xFF00);
 1463              		.loc 1 688 3 is_stmt 1 view .LVU358
 1464              		.loc 1 688 9 is_stmt 0 view .LVU359
 1465 0010 43EA0223 		orr	r3, r3, r2, lsl #8
 1466 0014 ADF80E30 		strh	r3, [sp, #14]	@ movhi
 689:Drivers/BSP/STM32746G-Discovery/stm32746g_discovery.c ****   
 690:Drivers/BSP/STM32746G-Discovery/stm32746g_discovery.c ****   I2Cx_WriteMultiple(&hI2cAudioHandler, Addr, Reg, I2C_MEMADD_SIZE_16BIT,(uint8_t*)&Value, 2);
 1467              		.loc 1 690 3 is_stmt 1 view .LVU360
 1468 0018 0223     		movs	r3, #2
ARM GAS  D:\cygwin64\tmp\ccVIozHZ.s 			page 43


 1469 001a 0193     		str	r3, [sp, #4]
 1470 001c 0DF10E02 		add	r2, sp, #14
 1471              	.LVL96:
 1472              		.loc 1 690 3 is_stmt 0 view .LVU361
 1473 0020 0092     		str	r2, [sp]
 1474 0022 0A46     		mov	r2, r1
 1475 0024 0146     		mov	r1, r0
 1476              	.LVL97:
 1477              		.loc 1 690 3 view .LVU362
 1478 0026 0348     		ldr	r0, .L116
 1479              	.LVL98:
 1480              		.loc 1 690 3 view .LVU363
 1481 0028 FFF7FEFF 		bl	I2Cx_WriteMultiple
 1482              	.LVL99:
 691:Drivers/BSP/STM32746G-Discovery/stm32746g_discovery.c **** }
 1483              		.loc 1 691 1 view .LVU364
 1484 002c 05B0     		add	sp, sp, #20
 1485              	.LCFI39:
 1486              		.cfi_def_cfa_offset 4
 1487              		@ sp needed
 1488 002e 5DF804FB 		ldr	pc, [sp], #4
 1489              	.L117:
 1490 0032 00BF     		.align	2
 1491              	.L116:
 1492 0034 00000000 		.word	hI2cAudioHandler
 1493              		.cfi_endproc
 1494              	.LFE160:
 1496              		.section	.text.AUDIO_IO_Read,"ax",%progbits
 1497              		.align	1
 1498              		.global	AUDIO_IO_Read
 1499              		.syntax unified
 1500              		.thumb
 1501              		.thumb_func
 1503              	AUDIO_IO_Read:
 1504              	.LVL100:
 1505              	.LFB161:
 692:Drivers/BSP/STM32746G-Discovery/stm32746g_discovery.c **** 
 693:Drivers/BSP/STM32746G-Discovery/stm32746g_discovery.c **** /**
 694:Drivers/BSP/STM32746G-Discovery/stm32746g_discovery.c ****   * @brief  Reads a single data.
 695:Drivers/BSP/STM32746G-Discovery/stm32746g_discovery.c ****   * @param  Addr: I2C address
 696:Drivers/BSP/STM32746G-Discovery/stm32746g_discovery.c ****   * @param  Reg: Reg address 
 697:Drivers/BSP/STM32746G-Discovery/stm32746g_discovery.c ****   * @retval Data to be read
 698:Drivers/BSP/STM32746G-Discovery/stm32746g_discovery.c ****   */
 699:Drivers/BSP/STM32746G-Discovery/stm32746g_discovery.c **** uint16_t AUDIO_IO_Read(uint8_t Addr, uint16_t Reg)
 700:Drivers/BSP/STM32746G-Discovery/stm32746g_discovery.c **** {
 1506              		.loc 1 700 1 is_stmt 1 view -0
 1507              		.cfi_startproc
 1508              		@ args = 0, pretend = 0, frame = 8
 1509              		@ frame_needed = 0, uses_anonymous_args = 0
 1510              		.loc 1 700 1 is_stmt 0 view .LVU366
 1511 0000 00B5     		push	{lr}
 1512              	.LCFI40:
 1513              		.cfi_def_cfa_offset 4
 1514              		.cfi_offset 14, -4
 1515 0002 85B0     		sub	sp, sp, #20
 1516              	.LCFI41:
 1517              		.cfi_def_cfa_offset 24
ARM GAS  D:\cygwin64\tmp\ccVIozHZ.s 			page 44


 1518 0004 0A46     		mov	r2, r1
 701:Drivers/BSP/STM32746G-Discovery/stm32746g_discovery.c ****   uint16_t read_value = 0, tmp = 0;
 1519              		.loc 1 701 3 is_stmt 1 view .LVU367
 1520              		.loc 1 701 12 is_stmt 0 view .LVU368
 1521 0006 0023     		movs	r3, #0
 1522 0008 ADF80E30 		strh	r3, [sp, #14]	@ movhi
 1523              	.LVL101:
 702:Drivers/BSP/STM32746G-Discovery/stm32746g_discovery.c ****   
 703:Drivers/BSP/STM32746G-Discovery/stm32746g_discovery.c ****   I2Cx_ReadMultiple(&hI2cAudioHandler, Addr, Reg, I2C_MEMADD_SIZE_16BIT, (uint8_t*)&read_value, 2);
 1524              		.loc 1 703 3 is_stmt 1 view .LVU369
 1525 000c 0223     		movs	r3, #2
 1526 000e 0193     		str	r3, [sp, #4]
 1527 0010 0DF10E01 		add	r1, sp, #14
 1528              	.LVL102:
 1529              		.loc 1 703 3 is_stmt 0 view .LVU370
 1530 0014 0091     		str	r1, [sp]
 1531 0016 0146     		mov	r1, r0
 1532 0018 0648     		ldr	r0, .L120
 1533              	.LVL103:
 1534              		.loc 1 703 3 view .LVU371
 1535 001a FFF7FEFF 		bl	I2Cx_ReadMultiple
 1536              	.LVL104:
 704:Drivers/BSP/STM32746G-Discovery/stm32746g_discovery.c ****   
 705:Drivers/BSP/STM32746G-Discovery/stm32746g_discovery.c ****   tmp = ((uint16_t)(read_value >> 8) & 0x00FF);
 1537              		.loc 1 705 3 is_stmt 1 view .LVU372
 1538              		.loc 1 705 10 is_stmt 0 view .LVU373
 1539 001e BDF80E30 		ldrh	r3, [sp, #14]
 1540              	.LVL105:
 706:Drivers/BSP/STM32746G-Discovery/stm32746g_discovery.c ****   
 707:Drivers/BSP/STM32746G-Discovery/stm32746g_discovery.c ****   tmp |= ((uint16_t)(read_value << 8)& 0xFF00);
 1541              		.loc 1 707 3 is_stmt 1 view .LVU374
 1542              		.loc 1 707 7 is_stmt 0 view .LVU375
 1543 0022 1802     		lsls	r0, r3, #8
 1544 0024 40EA1320 		orr	r0, r0, r3, lsr #8
 1545 0028 80B2     		uxth	r0, r0
 1546              	.LVL106:
 708:Drivers/BSP/STM32746G-Discovery/stm32746g_discovery.c ****   
 709:Drivers/BSP/STM32746G-Discovery/stm32746g_discovery.c ****   read_value = tmp;
 1547              		.loc 1 709 3 is_stmt 1 view .LVU376
 1548              		.loc 1 709 14 is_stmt 0 view .LVU377
 1549 002a ADF80E00 		strh	r0, [sp, #14]	@ movhi
 710:Drivers/BSP/STM32746G-Discovery/stm32746g_discovery.c ****   
 711:Drivers/BSP/STM32746G-Discovery/stm32746g_discovery.c ****   return read_value;
 1550              		.loc 1 711 3 is_stmt 1 view .LVU378
 712:Drivers/BSP/STM32746G-Discovery/stm32746g_discovery.c **** }
 1551              		.loc 1 712 1 is_stmt 0 view .LVU379
 1552 002e 05B0     		add	sp, sp, #20
 1553              	.LCFI42:
 1554              		.cfi_def_cfa_offset 4
 1555              		@ sp needed
 1556 0030 5DF804FB 		ldr	pc, [sp], #4
 1557              	.L121:
 1558              		.align	2
 1559              	.L120:
 1560 0034 00000000 		.word	hI2cAudioHandler
 1561              		.cfi_endproc
 1562              	.LFE161:
ARM GAS  D:\cygwin64\tmp\ccVIozHZ.s 			page 45


 1564              		.section	.text.AUDIO_IO_Delay,"ax",%progbits
 1565              		.align	1
 1566              		.global	AUDIO_IO_Delay
 1567              		.syntax unified
 1568              		.thumb
 1569              		.thumb_func
 1571              	AUDIO_IO_Delay:
 1572              	.LVL107:
 1573              	.LFB162:
 713:Drivers/BSP/STM32746G-Discovery/stm32746g_discovery.c **** 
 714:Drivers/BSP/STM32746G-Discovery/stm32746g_discovery.c **** /**
 715:Drivers/BSP/STM32746G-Discovery/stm32746g_discovery.c ****   * @brief  AUDIO Codec delay 
 716:Drivers/BSP/STM32746G-Discovery/stm32746g_discovery.c ****   * @param  Delay: Delay in ms
 717:Drivers/BSP/STM32746G-Discovery/stm32746g_discovery.c ****   * @retval None
 718:Drivers/BSP/STM32746G-Discovery/stm32746g_discovery.c ****   */
 719:Drivers/BSP/STM32746G-Discovery/stm32746g_discovery.c **** void AUDIO_IO_Delay(uint32_t Delay)
 720:Drivers/BSP/STM32746G-Discovery/stm32746g_discovery.c **** {
 1574              		.loc 1 720 1 is_stmt 1 view -0
 1575              		.cfi_startproc
 1576              		@ args = 0, pretend = 0, frame = 0
 1577              		@ frame_needed = 0, uses_anonymous_args = 0
 1578              		.loc 1 720 1 is_stmt 0 view .LVU381
 1579 0000 08B5     		push	{r3, lr}
 1580              	.LCFI43:
 1581              		.cfi_def_cfa_offset 8
 1582              		.cfi_offset 3, -8
 1583              		.cfi_offset 14, -4
 721:Drivers/BSP/STM32746G-Discovery/stm32746g_discovery.c ****   HAL_Delay(Delay);
 1584              		.loc 1 721 3 is_stmt 1 view .LVU382
 1585 0002 FFF7FEFF 		bl	HAL_Delay
 1586              	.LVL108:
 722:Drivers/BSP/STM32746G-Discovery/stm32746g_discovery.c **** }
 1587              		.loc 1 722 1 is_stmt 0 view .LVU383
 1588 0006 08BD     		pop	{r3, pc}
 1589              		.cfi_endproc
 1590              	.LFE162:
 1592              		.section	.text.CAMERA_IO_Init,"ax",%progbits
 1593              		.align	1
 1594              		.global	CAMERA_IO_Init
 1595              		.syntax unified
 1596              		.thumb
 1597              		.thumb_func
 1599              	CAMERA_IO_Init:
 1600              	.LFB163:
 723:Drivers/BSP/STM32746G-Discovery/stm32746g_discovery.c **** 
 724:Drivers/BSP/STM32746G-Discovery/stm32746g_discovery.c **** /********************************* LINK CAMERA ********************************/
 725:Drivers/BSP/STM32746G-Discovery/stm32746g_discovery.c **** 
 726:Drivers/BSP/STM32746G-Discovery/stm32746g_discovery.c **** /**
 727:Drivers/BSP/STM32746G-Discovery/stm32746g_discovery.c ****   * @brief  Initializes Camera low level.
 728:Drivers/BSP/STM32746G-Discovery/stm32746g_discovery.c ****   * @retval None
 729:Drivers/BSP/STM32746G-Discovery/stm32746g_discovery.c ****   */
 730:Drivers/BSP/STM32746G-Discovery/stm32746g_discovery.c **** void CAMERA_IO_Init(void) 
 731:Drivers/BSP/STM32746G-Discovery/stm32746g_discovery.c **** {
 1601              		.loc 1 731 1 is_stmt 1 view -0
 1602              		.cfi_startproc
 1603              		@ args = 0, pretend = 0, frame = 0
 1604              		@ frame_needed = 0, uses_anonymous_args = 0
ARM GAS  D:\cygwin64\tmp\ccVIozHZ.s 			page 46


 1605 0000 08B5     		push	{r3, lr}
 1606              	.LCFI44:
 1607              		.cfi_def_cfa_offset 8
 1608              		.cfi_offset 3, -8
 1609              		.cfi_offset 14, -4
 732:Drivers/BSP/STM32746G-Discovery/stm32746g_discovery.c ****   I2Cx_Init(&hI2cExtHandler);
 1610              		.loc 1 732 3 view .LVU385
 1611 0002 0248     		ldr	r0, .L126
 1612 0004 FFF7FEFF 		bl	I2Cx_Init
 1613              	.LVL109:
 733:Drivers/BSP/STM32746G-Discovery/stm32746g_discovery.c **** }
 1614              		.loc 1 733 1 is_stmt 0 view .LVU386
 1615 0008 08BD     		pop	{r3, pc}
 1616              	.L127:
 1617 000a 00BF     		.align	2
 1618              	.L126:
 1619 000c 00000000 		.word	hI2cExtHandler
 1620              		.cfi_endproc
 1621              	.LFE163:
 1623              		.section	.text.CAMERA_IO_Write,"ax",%progbits
 1624              		.align	1
 1625              		.global	CAMERA_IO_Write
 1626              		.syntax unified
 1627              		.thumb
 1628              		.thumb_func
 1630              	CAMERA_IO_Write:
 1631              	.LVL110:
 1632              	.LFB164:
 734:Drivers/BSP/STM32746G-Discovery/stm32746g_discovery.c **** 
 735:Drivers/BSP/STM32746G-Discovery/stm32746g_discovery.c **** /**
 736:Drivers/BSP/STM32746G-Discovery/stm32746g_discovery.c ****   * @brief  Camera writes single data.
 737:Drivers/BSP/STM32746G-Discovery/stm32746g_discovery.c ****   * @param  Addr: I2C address
 738:Drivers/BSP/STM32746G-Discovery/stm32746g_discovery.c ****   * @param  Reg: Register address 
 739:Drivers/BSP/STM32746G-Discovery/stm32746g_discovery.c ****   * @param  Value: Data to be written
 740:Drivers/BSP/STM32746G-Discovery/stm32746g_discovery.c ****   * @retval None
 741:Drivers/BSP/STM32746G-Discovery/stm32746g_discovery.c ****   */
 742:Drivers/BSP/STM32746G-Discovery/stm32746g_discovery.c **** void CAMERA_IO_Write(uint8_t Addr, uint8_t Reg, uint8_t Value)
 743:Drivers/BSP/STM32746G-Discovery/stm32746g_discovery.c **** {
 1633              		.loc 1 743 1 is_stmt 1 view -0
 1634              		.cfi_startproc
 1635              		@ args = 0, pretend = 0, frame = 8
 1636              		@ frame_needed = 0, uses_anonymous_args = 0
 1637              		.loc 1 743 1 is_stmt 0 view .LVU388
 1638 0000 00B5     		push	{lr}
 1639              	.LCFI45:
 1640              		.cfi_def_cfa_offset 4
 1641              		.cfi_offset 14, -4
 1642 0002 85B0     		sub	sp, sp, #20
 1643              	.LCFI46:
 1644              		.cfi_def_cfa_offset 24
 1645 0004 8DF80F20 		strb	r2, [sp, #15]
 744:Drivers/BSP/STM32746G-Discovery/stm32746g_discovery.c ****   I2Cx_WriteMultiple(&hI2cExtHandler, Addr, (uint16_t)Reg, I2C_MEMADD_SIZE_8BIT,(uint8_t*)&Value, 1
 1646              		.loc 1 744 3 is_stmt 1 view .LVU389
 1647 0008 0123     		movs	r3, #1
 1648 000a 0193     		str	r3, [sp, #4]
 1649 000c 0DF10F02 		add	r2, sp, #15
 1650              	.LVL111:
ARM GAS  D:\cygwin64\tmp\ccVIozHZ.s 			page 47


 1651              		.loc 1 744 3 is_stmt 0 view .LVU390
 1652 0010 0092     		str	r2, [sp]
 1653 0012 0A46     		mov	r2, r1
 1654              	.LVL112:
 1655              		.loc 1 744 3 view .LVU391
 1656 0014 0146     		mov	r1, r0
 1657              	.LVL113:
 1658              		.loc 1 744 3 view .LVU392
 1659 0016 0348     		ldr	r0, .L130
 1660              	.LVL114:
 1661              		.loc 1 744 3 view .LVU393
 1662 0018 FFF7FEFF 		bl	I2Cx_WriteMultiple
 1663              	.LVL115:
 745:Drivers/BSP/STM32746G-Discovery/stm32746g_discovery.c **** }
 1664              		.loc 1 745 1 view .LVU394
 1665 001c 05B0     		add	sp, sp, #20
 1666              	.LCFI47:
 1667              		.cfi_def_cfa_offset 4
 1668              		@ sp needed
 1669 001e 5DF804FB 		ldr	pc, [sp], #4
 1670              	.L131:
 1671 0022 00BF     		.align	2
 1672              	.L130:
 1673 0024 00000000 		.word	hI2cExtHandler
 1674              		.cfi_endproc
 1675              	.LFE164:
 1677              		.section	.text.CAMERA_IO_Read,"ax",%progbits
 1678              		.align	1
 1679              		.global	CAMERA_IO_Read
 1680              		.syntax unified
 1681              		.thumb
 1682              		.thumb_func
 1684              	CAMERA_IO_Read:
 1685              	.LVL116:
 1686              	.LFB165:
 746:Drivers/BSP/STM32746G-Discovery/stm32746g_discovery.c **** 
 747:Drivers/BSP/STM32746G-Discovery/stm32746g_discovery.c **** /**
 748:Drivers/BSP/STM32746G-Discovery/stm32746g_discovery.c ****   * @brief  Camera reads single data.
 749:Drivers/BSP/STM32746G-Discovery/stm32746g_discovery.c ****   * @param  Addr: I2C address
 750:Drivers/BSP/STM32746G-Discovery/stm32746g_discovery.c ****   * @param  Reg: Register address 
 751:Drivers/BSP/STM32746G-Discovery/stm32746g_discovery.c ****   * @retval Read data
 752:Drivers/BSP/STM32746G-Discovery/stm32746g_discovery.c ****   */
 753:Drivers/BSP/STM32746G-Discovery/stm32746g_discovery.c **** uint8_t CAMERA_IO_Read(uint8_t Addr, uint8_t Reg)
 754:Drivers/BSP/STM32746G-Discovery/stm32746g_discovery.c **** {
 1687              		.loc 1 754 1 is_stmt 1 view -0
 1688              		.cfi_startproc
 1689              		@ args = 0, pretend = 0, frame = 8
 1690              		@ frame_needed = 0, uses_anonymous_args = 0
 1691              		.loc 1 754 1 is_stmt 0 view .LVU396
 1692 0000 00B5     		push	{lr}
 1693              	.LCFI48:
 1694              		.cfi_def_cfa_offset 4
 1695              		.cfi_offset 14, -4
 1696 0002 85B0     		sub	sp, sp, #20
 1697              	.LCFI49:
 1698              		.cfi_def_cfa_offset 24
 1699 0004 0A46     		mov	r2, r1
ARM GAS  D:\cygwin64\tmp\ccVIozHZ.s 			page 48


 755:Drivers/BSP/STM32746G-Discovery/stm32746g_discovery.c ****   uint8_t read_value = 0;
 1700              		.loc 1 755 3 is_stmt 1 view .LVU397
 1701              		.loc 1 755 11 is_stmt 0 view .LVU398
 1702 0006 0023     		movs	r3, #0
 1703 0008 8DF80F30 		strb	r3, [sp, #15]
 756:Drivers/BSP/STM32746G-Discovery/stm32746g_discovery.c **** 
 757:Drivers/BSP/STM32746G-Discovery/stm32746g_discovery.c ****   I2Cx_ReadMultiple(&hI2cExtHandler, Addr, Reg, I2C_MEMADD_SIZE_8BIT, (uint8_t*)&read_value, 1);
 1704              		.loc 1 757 3 is_stmt 1 view .LVU399
 1705 000c 0123     		movs	r3, #1
 1706 000e 0193     		str	r3, [sp, #4]
 1707 0010 0DF10F01 		add	r1, sp, #15
 1708              	.LVL117:
 1709              		.loc 1 757 3 is_stmt 0 view .LVU400
 1710 0014 0091     		str	r1, [sp]
 1711 0016 0146     		mov	r1, r0
 1712 0018 0348     		ldr	r0, .L134
 1713              	.LVL118:
 1714              		.loc 1 757 3 view .LVU401
 1715 001a FFF7FEFF 		bl	I2Cx_ReadMultiple
 1716              	.LVL119:
 758:Drivers/BSP/STM32746G-Discovery/stm32746g_discovery.c **** 
 759:Drivers/BSP/STM32746G-Discovery/stm32746g_discovery.c ****   return read_value;
 1717              		.loc 1 759 3 is_stmt 1 view .LVU402
 760:Drivers/BSP/STM32746G-Discovery/stm32746g_discovery.c **** }
 1718              		.loc 1 760 1 is_stmt 0 view .LVU403
 1719 001e 9DF80F00 		ldrb	r0, [sp, #15]	@ zero_extendqisi2
 1720 0022 05B0     		add	sp, sp, #20
 1721              	.LCFI50:
 1722              		.cfi_def_cfa_offset 4
 1723              		@ sp needed
 1724 0024 5DF804FB 		ldr	pc, [sp], #4
 1725              	.L135:
 1726              		.align	2
 1727              	.L134:
 1728 0028 00000000 		.word	hI2cExtHandler
 1729              		.cfi_endproc
 1730              	.LFE165:
 1732              		.section	.text.CAMERA_Delay,"ax",%progbits
 1733              		.align	1
 1734              		.global	CAMERA_Delay
 1735              		.syntax unified
 1736              		.thumb
 1737              		.thumb_func
 1739              	CAMERA_Delay:
 1740              	.LVL120:
 1741              	.LFB166:
 761:Drivers/BSP/STM32746G-Discovery/stm32746g_discovery.c **** 
 762:Drivers/BSP/STM32746G-Discovery/stm32746g_discovery.c **** /**
 763:Drivers/BSP/STM32746G-Discovery/stm32746g_discovery.c ****   * @brief  Camera delay 
 764:Drivers/BSP/STM32746G-Discovery/stm32746g_discovery.c ****   * @param  Delay: Delay in ms
 765:Drivers/BSP/STM32746G-Discovery/stm32746g_discovery.c ****   * @retval None
 766:Drivers/BSP/STM32746G-Discovery/stm32746g_discovery.c ****   */
 767:Drivers/BSP/STM32746G-Discovery/stm32746g_discovery.c **** void CAMERA_Delay(uint32_t Delay)
 768:Drivers/BSP/STM32746G-Discovery/stm32746g_discovery.c **** {
 1742              		.loc 1 768 1 is_stmt 1 view -0
 1743              		.cfi_startproc
 1744              		@ args = 0, pretend = 0, frame = 0
ARM GAS  D:\cygwin64\tmp\ccVIozHZ.s 			page 49


 1745              		@ frame_needed = 0, uses_anonymous_args = 0
 1746              		.loc 1 768 1 is_stmt 0 view .LVU405
 1747 0000 08B5     		push	{r3, lr}
 1748              	.LCFI51:
 1749              		.cfi_def_cfa_offset 8
 1750              		.cfi_offset 3, -8
 1751              		.cfi_offset 14, -4
 769:Drivers/BSP/STM32746G-Discovery/stm32746g_discovery.c ****   HAL_Delay(Delay);
 1752              		.loc 1 769 3 is_stmt 1 view .LVU406
 1753 0002 FFF7FEFF 		bl	HAL_Delay
 1754              	.LVL121:
 770:Drivers/BSP/STM32746G-Discovery/stm32746g_discovery.c **** }
 1755              		.loc 1 770 1 is_stmt 0 view .LVU407
 1756 0006 08BD     		pop	{r3, pc}
 1757              		.cfi_endproc
 1758              	.LFE166:
 1760              		.section	.text.EEPROM_IO_Init,"ax",%progbits
 1761              		.align	1
 1762              		.global	EEPROM_IO_Init
 1763              		.syntax unified
 1764              		.thumb
 1765              		.thumb_func
 1767              	EEPROM_IO_Init:
 1768              	.LFB167:
 771:Drivers/BSP/STM32746G-Discovery/stm32746g_discovery.c **** 
 772:Drivers/BSP/STM32746G-Discovery/stm32746g_discovery.c **** /******************************** LINK I2C EEPROM *****************************/
 773:Drivers/BSP/STM32746G-Discovery/stm32746g_discovery.c **** 
 774:Drivers/BSP/STM32746G-Discovery/stm32746g_discovery.c **** /**
 775:Drivers/BSP/STM32746G-Discovery/stm32746g_discovery.c ****   * @brief  Initializes peripherals used by the I2C EEPROM driver.
 776:Drivers/BSP/STM32746G-Discovery/stm32746g_discovery.c ****   * @retval None
 777:Drivers/BSP/STM32746G-Discovery/stm32746g_discovery.c ****   */
 778:Drivers/BSP/STM32746G-Discovery/stm32746g_discovery.c **** void EEPROM_IO_Init(void)
 779:Drivers/BSP/STM32746G-Discovery/stm32746g_discovery.c **** {
 1769              		.loc 1 779 1 is_stmt 1 view -0
 1770              		.cfi_startproc
 1771              		@ args = 0, pretend = 0, frame = 0
 1772              		@ frame_needed = 0, uses_anonymous_args = 0
 1773 0000 08B5     		push	{r3, lr}
 1774              	.LCFI52:
 1775              		.cfi_def_cfa_offset 8
 1776              		.cfi_offset 3, -8
 1777              		.cfi_offset 14, -4
 780:Drivers/BSP/STM32746G-Discovery/stm32746g_discovery.c ****   I2Cx_Init(&hI2cExtHandler);
 1778              		.loc 1 780 3 view .LVU409
 1779 0002 0248     		ldr	r0, .L140
 1780 0004 FFF7FEFF 		bl	I2Cx_Init
 1781              	.LVL122:
 781:Drivers/BSP/STM32746G-Discovery/stm32746g_discovery.c **** }
 1782              		.loc 1 781 1 is_stmt 0 view .LVU410
 1783 0008 08BD     		pop	{r3, pc}
 1784              	.L141:
 1785 000a 00BF     		.align	2
 1786              	.L140:
 1787 000c 00000000 		.word	hI2cExtHandler
 1788              		.cfi_endproc
 1789              	.LFE167:
 1791              		.section	.text.EEPROM_IO_WriteData,"ax",%progbits
ARM GAS  D:\cygwin64\tmp\ccVIozHZ.s 			page 50


 1792              		.align	1
 1793              		.global	EEPROM_IO_WriteData
 1794              		.syntax unified
 1795              		.thumb
 1796              		.thumb_func
 1798              	EEPROM_IO_WriteData:
 1799              	.LVL123:
 1800              	.LFB168:
 782:Drivers/BSP/STM32746G-Discovery/stm32746g_discovery.c **** 
 783:Drivers/BSP/STM32746G-Discovery/stm32746g_discovery.c **** /**
 784:Drivers/BSP/STM32746G-Discovery/stm32746g_discovery.c ****   * @brief  Write data to I2C EEPROM driver in using DMA channel.
 785:Drivers/BSP/STM32746G-Discovery/stm32746g_discovery.c ****   * @param  DevAddress: Target device address
 786:Drivers/BSP/STM32746G-Discovery/stm32746g_discovery.c ****   * @param  MemAddress: Internal memory address
 787:Drivers/BSP/STM32746G-Discovery/stm32746g_discovery.c ****   * @param  pBuffer: Pointer to data buffer
 788:Drivers/BSP/STM32746G-Discovery/stm32746g_discovery.c ****   * @param  BufferSize: Amount of data to be sent
 789:Drivers/BSP/STM32746G-Discovery/stm32746g_discovery.c ****   * @retval HAL status
 790:Drivers/BSP/STM32746G-Discovery/stm32746g_discovery.c ****   */
 791:Drivers/BSP/STM32746G-Discovery/stm32746g_discovery.c **** HAL_StatusTypeDef EEPROM_IO_WriteData(uint16_t DevAddress, uint16_t MemAddress, uint8_t* pBuffer, u
 792:Drivers/BSP/STM32746G-Discovery/stm32746g_discovery.c **** {
 1801              		.loc 1 792 1 is_stmt 1 view -0
 1802              		.cfi_startproc
 1803              		@ args = 0, pretend = 0, frame = 0
 1804              		@ frame_needed = 0, uses_anonymous_args = 0
 1805              		.loc 1 792 1 is_stmt 0 view .LVU412
 1806 0000 00B5     		push	{lr}
 1807              	.LCFI53:
 1808              		.cfi_def_cfa_offset 4
 1809              		.cfi_offset 14, -4
 1810 0002 83B0     		sub	sp, sp, #12
 1811              	.LCFI54:
 1812              		.cfi_def_cfa_offset 16
 793:Drivers/BSP/STM32746G-Discovery/stm32746g_discovery.c ****   return (I2Cx_WriteMultiple(&hI2cExtHandler, DevAddress, MemAddress, I2C_MEMADD_SIZE_16BIT, pBuffe
 1813              		.loc 1 793 3 is_stmt 1 view .LVU413
 1814              		.loc 1 793 11 is_stmt 0 view .LVU414
 1815 0004 9BB2     		uxth	r3, r3
 1816              	.LVL124:
 1817              		.loc 1 793 11 view .LVU415
 1818 0006 0193     		str	r3, [sp, #4]
 1819 0008 0092     		str	r2, [sp]
 1820 000a 0223     		movs	r3, #2
 1821 000c 0A46     		mov	r2, r1
 1822              	.LVL125:
 1823              		.loc 1 793 11 view .LVU416
 1824 000e C1B2     		uxtb	r1, r0
 1825              	.LVL126:
 1826              		.loc 1 793 11 view .LVU417
 1827 0010 0248     		ldr	r0, .L144
 1828              	.LVL127:
 1829              		.loc 1 793 11 view .LVU418
 1830 0012 FFF7FEFF 		bl	I2Cx_WriteMultiple
 1831              	.LVL128:
 794:Drivers/BSP/STM32746G-Discovery/stm32746g_discovery.c **** }
 1832              		.loc 1 794 1 view .LVU419
 1833 0016 03B0     		add	sp, sp, #12
 1834              	.LCFI55:
 1835              		.cfi_def_cfa_offset 4
 1836              		@ sp needed
ARM GAS  D:\cygwin64\tmp\ccVIozHZ.s 			page 51


 1837 0018 5DF804FB 		ldr	pc, [sp], #4
 1838              	.L145:
 1839              		.align	2
 1840              	.L144:
 1841 001c 00000000 		.word	hI2cExtHandler
 1842              		.cfi_endproc
 1843              	.LFE168:
 1845              		.section	.text.EEPROM_IO_ReadData,"ax",%progbits
 1846              		.align	1
 1847              		.global	EEPROM_IO_ReadData
 1848              		.syntax unified
 1849              		.thumb
 1850              		.thumb_func
 1852              	EEPROM_IO_ReadData:
 1853              	.LVL129:
 1854              	.LFB169:
 795:Drivers/BSP/STM32746G-Discovery/stm32746g_discovery.c **** 
 796:Drivers/BSP/STM32746G-Discovery/stm32746g_discovery.c **** /**
 797:Drivers/BSP/STM32746G-Discovery/stm32746g_discovery.c ****   * @brief  Read data from I2C EEPROM driver in using DMA channel.
 798:Drivers/BSP/STM32746G-Discovery/stm32746g_discovery.c ****   * @param  DevAddress: Target device address
 799:Drivers/BSP/STM32746G-Discovery/stm32746g_discovery.c ****   * @param  MemAddress: Internal memory address
 800:Drivers/BSP/STM32746G-Discovery/stm32746g_discovery.c ****   * @param  pBuffer: Pointer to data buffer
 801:Drivers/BSP/STM32746G-Discovery/stm32746g_discovery.c ****   * @param  BufferSize: Amount of data to be read
 802:Drivers/BSP/STM32746G-Discovery/stm32746g_discovery.c ****   * @retval HAL status
 803:Drivers/BSP/STM32746G-Discovery/stm32746g_discovery.c ****   */
 804:Drivers/BSP/STM32746G-Discovery/stm32746g_discovery.c **** HAL_StatusTypeDef EEPROM_IO_ReadData(uint16_t DevAddress, uint16_t MemAddress, uint8_t* pBuffer, ui
 805:Drivers/BSP/STM32746G-Discovery/stm32746g_discovery.c **** {
 1855              		.loc 1 805 1 is_stmt 1 view -0
 1856              		.cfi_startproc
 1857              		@ args = 0, pretend = 0, frame = 0
 1858              		@ frame_needed = 0, uses_anonymous_args = 0
 1859              		.loc 1 805 1 is_stmt 0 view .LVU421
 1860 0000 00B5     		push	{lr}
 1861              	.LCFI56:
 1862              		.cfi_def_cfa_offset 4
 1863              		.cfi_offset 14, -4
 1864 0002 83B0     		sub	sp, sp, #12
 1865              	.LCFI57:
 1866              		.cfi_def_cfa_offset 16
 806:Drivers/BSP/STM32746G-Discovery/stm32746g_discovery.c ****   return (I2Cx_ReadMultiple(&hI2cExtHandler, DevAddress, MemAddress, I2C_MEMADD_SIZE_16BIT, pBuffer
 1867              		.loc 1 806 3 is_stmt 1 view .LVU422
 1868              		.loc 1 806 11 is_stmt 0 view .LVU423
 1869 0004 9BB2     		uxth	r3, r3
 1870              	.LVL130:
 1871              		.loc 1 806 11 view .LVU424
 1872 0006 0193     		str	r3, [sp, #4]
 1873 0008 0092     		str	r2, [sp]
 1874 000a 0223     		movs	r3, #2
 1875 000c 0A46     		mov	r2, r1
 1876              	.LVL131:
 1877              		.loc 1 806 11 view .LVU425
 1878 000e C1B2     		uxtb	r1, r0
 1879              	.LVL132:
 1880              		.loc 1 806 11 view .LVU426
 1881 0010 0248     		ldr	r0, .L148
 1882              	.LVL133:
 1883              		.loc 1 806 11 view .LVU427
ARM GAS  D:\cygwin64\tmp\ccVIozHZ.s 			page 52


 1884 0012 FFF7FEFF 		bl	I2Cx_ReadMultiple
 1885              	.LVL134:
 807:Drivers/BSP/STM32746G-Discovery/stm32746g_discovery.c **** }
 1886              		.loc 1 807 1 view .LVU428
 1887 0016 03B0     		add	sp, sp, #12
 1888              	.LCFI58:
 1889              		.cfi_def_cfa_offset 4
 1890              		@ sp needed
 1891 0018 5DF804FB 		ldr	pc, [sp], #4
 1892              	.L149:
 1893              		.align	2
 1894              	.L148:
 1895 001c 00000000 		.word	hI2cExtHandler
 1896              		.cfi_endproc
 1897              	.LFE169:
 1899              		.section	.text.EEPROM_IO_IsDeviceReady,"ax",%progbits
 1900              		.align	1
 1901              		.global	EEPROM_IO_IsDeviceReady
 1902              		.syntax unified
 1903              		.thumb
 1904              		.thumb_func
 1906              	EEPROM_IO_IsDeviceReady:
 1907              	.LVL135:
 1908              	.LFB170:
 808:Drivers/BSP/STM32746G-Discovery/stm32746g_discovery.c **** 
 809:Drivers/BSP/STM32746G-Discovery/stm32746g_discovery.c **** /**
 810:Drivers/BSP/STM32746G-Discovery/stm32746g_discovery.c ****   * @brief  Checks if target device is ready for communication. 
 811:Drivers/BSP/STM32746G-Discovery/stm32746g_discovery.c ****   * @note   This function is used with Memory devices
 812:Drivers/BSP/STM32746G-Discovery/stm32746g_discovery.c ****   * @param  DevAddress: Target device address
 813:Drivers/BSP/STM32746G-Discovery/stm32746g_discovery.c ****   * @param  Trials: Number of trials
 814:Drivers/BSP/STM32746G-Discovery/stm32746g_discovery.c ****   * @retval HAL status
 815:Drivers/BSP/STM32746G-Discovery/stm32746g_discovery.c ****   */
 816:Drivers/BSP/STM32746G-Discovery/stm32746g_discovery.c **** HAL_StatusTypeDef EEPROM_IO_IsDeviceReady(uint16_t DevAddress, uint32_t Trials)
 817:Drivers/BSP/STM32746G-Discovery/stm32746g_discovery.c **** { 
 1909              		.loc 1 817 1 is_stmt 1 view -0
 1910              		.cfi_startproc
 1911              		@ args = 0, pretend = 0, frame = 0
 1912              		@ frame_needed = 0, uses_anonymous_args = 0
 1913              		.loc 1 817 1 is_stmt 0 view .LVU430
 1914 0000 08B5     		push	{r3, lr}
 1915              	.LCFI59:
 1916              		.cfi_def_cfa_offset 8
 1917              		.cfi_offset 3, -8
 1918              		.cfi_offset 14, -4
 1919 0002 0A46     		mov	r2, r1
 818:Drivers/BSP/STM32746G-Discovery/stm32746g_discovery.c ****   return (I2Cx_IsDeviceReady(&hI2cExtHandler, DevAddress, Trials));
 1920              		.loc 1 818 3 is_stmt 1 view .LVU431
 1921              		.loc 1 818 11 is_stmt 0 view .LVU432
 1922 0004 0146     		mov	r1, r0
 1923              	.LVL136:
 1924              		.loc 1 818 11 view .LVU433
 1925 0006 0248     		ldr	r0, .L152
 1926              	.LVL137:
 1927              		.loc 1 818 11 view .LVU434
 1928 0008 FFF7FEFF 		bl	I2Cx_IsDeviceReady
 1929              	.LVL138:
 819:Drivers/BSP/STM32746G-Discovery/stm32746g_discovery.c **** }
ARM GAS  D:\cygwin64\tmp\ccVIozHZ.s 			page 53


 1930              		.loc 1 819 1 view .LVU435
 1931 000c 08BD     		pop	{r3, pc}
 1932              	.L153:
 1933 000e 00BF     		.align	2
 1934              	.L152:
 1935 0010 00000000 		.word	hI2cExtHandler
 1936              		.cfi_endproc
 1937              	.LFE170:
 1939              		.section	.text.TS_IO_Init,"ax",%progbits
 1940              		.align	1
 1941              		.global	TS_IO_Init
 1942              		.syntax unified
 1943              		.thumb
 1944              		.thumb_func
 1946              	TS_IO_Init:
 1947              	.LFB171:
 820:Drivers/BSP/STM32746G-Discovery/stm32746g_discovery.c **** 
 821:Drivers/BSP/STM32746G-Discovery/stm32746g_discovery.c **** /********************************* LINK TOUCHSCREEN *********************************/
 822:Drivers/BSP/STM32746G-Discovery/stm32746g_discovery.c **** 
 823:Drivers/BSP/STM32746G-Discovery/stm32746g_discovery.c **** /**
 824:Drivers/BSP/STM32746G-Discovery/stm32746g_discovery.c ****   * @brief  Initializes Touchscreen low level.
 825:Drivers/BSP/STM32746G-Discovery/stm32746g_discovery.c ****   * @retval None
 826:Drivers/BSP/STM32746G-Discovery/stm32746g_discovery.c ****   */
 827:Drivers/BSP/STM32746G-Discovery/stm32746g_discovery.c **** void TS_IO_Init(void)
 828:Drivers/BSP/STM32746G-Discovery/stm32746g_discovery.c **** {
 1948              		.loc 1 828 1 is_stmt 1 view -0
 1949              		.cfi_startproc
 1950              		@ args = 0, pretend = 0, frame = 0
 1951              		@ frame_needed = 0, uses_anonymous_args = 0
 1952 0000 08B5     		push	{r3, lr}
 1953              	.LCFI60:
 1954              		.cfi_def_cfa_offset 8
 1955              		.cfi_offset 3, -8
 1956              		.cfi_offset 14, -4
 829:Drivers/BSP/STM32746G-Discovery/stm32746g_discovery.c ****   I2Cx_Init(&hI2cAudioHandler);
 1957              		.loc 1 829 3 view .LVU437
 1958 0002 0248     		ldr	r0, .L156
 1959 0004 FFF7FEFF 		bl	I2Cx_Init
 1960              	.LVL139:
 830:Drivers/BSP/STM32746G-Discovery/stm32746g_discovery.c **** }
 1961              		.loc 1 830 1 is_stmt 0 view .LVU438
 1962 0008 08BD     		pop	{r3, pc}
 1963              	.L157:
 1964 000a 00BF     		.align	2
 1965              	.L156:
 1966 000c 00000000 		.word	hI2cAudioHandler
 1967              		.cfi_endproc
 1968              	.LFE171:
 1970              		.section	.text.TS_IO_Write,"ax",%progbits
 1971              		.align	1
 1972              		.global	TS_IO_Write
 1973              		.syntax unified
 1974              		.thumb
 1975              		.thumb_func
 1977              	TS_IO_Write:
 1978              	.LVL140:
 1979              	.LFB172:
ARM GAS  D:\cygwin64\tmp\ccVIozHZ.s 			page 54


 831:Drivers/BSP/STM32746G-Discovery/stm32746g_discovery.c **** 
 832:Drivers/BSP/STM32746G-Discovery/stm32746g_discovery.c **** /**
 833:Drivers/BSP/STM32746G-Discovery/stm32746g_discovery.c ****   * @brief  Writes a single data.
 834:Drivers/BSP/STM32746G-Discovery/stm32746g_discovery.c ****   * @param  Addr: I2C address
 835:Drivers/BSP/STM32746G-Discovery/stm32746g_discovery.c ****   * @param  Reg: Reg address
 836:Drivers/BSP/STM32746G-Discovery/stm32746g_discovery.c ****   * @param  Value: Data to be written
 837:Drivers/BSP/STM32746G-Discovery/stm32746g_discovery.c ****   * @retval None
 838:Drivers/BSP/STM32746G-Discovery/stm32746g_discovery.c ****   */
 839:Drivers/BSP/STM32746G-Discovery/stm32746g_discovery.c **** void TS_IO_Write(uint8_t Addr, uint8_t Reg, uint8_t Value)
 840:Drivers/BSP/STM32746G-Discovery/stm32746g_discovery.c **** {
 1980              		.loc 1 840 1 is_stmt 1 view -0
 1981              		.cfi_startproc
 1982              		@ args = 0, pretend = 0, frame = 8
 1983              		@ frame_needed = 0, uses_anonymous_args = 0
 1984              		.loc 1 840 1 is_stmt 0 view .LVU440
 1985 0000 00B5     		push	{lr}
 1986              	.LCFI61:
 1987              		.cfi_def_cfa_offset 4
 1988              		.cfi_offset 14, -4
 1989 0002 85B0     		sub	sp, sp, #20
 1990              	.LCFI62:
 1991              		.cfi_def_cfa_offset 24
 1992 0004 8DF80F20 		strb	r2, [sp, #15]
 841:Drivers/BSP/STM32746G-Discovery/stm32746g_discovery.c ****   I2Cx_WriteMultiple(&hI2cAudioHandler, Addr, (uint16_t)Reg, I2C_MEMADD_SIZE_8BIT,(uint8_t*)&Value,
 1993              		.loc 1 841 3 is_stmt 1 view .LVU441
 1994 0008 0123     		movs	r3, #1
 1995 000a 0193     		str	r3, [sp, #4]
 1996 000c 0DF10F02 		add	r2, sp, #15
 1997              	.LVL141:
 1998              		.loc 1 841 3 is_stmt 0 view .LVU442
 1999 0010 0092     		str	r2, [sp]
 2000 0012 0A46     		mov	r2, r1
 2001              	.LVL142:
 2002              		.loc 1 841 3 view .LVU443
 2003 0014 0146     		mov	r1, r0
 2004              	.LVL143:
 2005              		.loc 1 841 3 view .LVU444
 2006 0016 0348     		ldr	r0, .L160
 2007              	.LVL144:
 2008              		.loc 1 841 3 view .LVU445
 2009 0018 FFF7FEFF 		bl	I2Cx_WriteMultiple
 2010              	.LVL145:
 842:Drivers/BSP/STM32746G-Discovery/stm32746g_discovery.c **** }
 2011              		.loc 1 842 1 view .LVU446
 2012 001c 05B0     		add	sp, sp, #20
 2013              	.LCFI63:
 2014              		.cfi_def_cfa_offset 4
 2015              		@ sp needed
 2016 001e 5DF804FB 		ldr	pc, [sp], #4
 2017              	.L161:
 2018 0022 00BF     		.align	2
 2019              	.L160:
 2020 0024 00000000 		.word	hI2cAudioHandler
 2021              		.cfi_endproc
 2022              	.LFE172:
 2024              		.section	.text.TS_IO_Read,"ax",%progbits
 2025              		.align	1
ARM GAS  D:\cygwin64\tmp\ccVIozHZ.s 			page 55


 2026              		.global	TS_IO_Read
 2027              		.syntax unified
 2028              		.thumb
 2029              		.thumb_func
 2031              	TS_IO_Read:
 2032              	.LVL146:
 2033              	.LFB173:
 843:Drivers/BSP/STM32746G-Discovery/stm32746g_discovery.c **** 
 844:Drivers/BSP/STM32746G-Discovery/stm32746g_discovery.c **** /**
 845:Drivers/BSP/STM32746G-Discovery/stm32746g_discovery.c ****   * @brief  Reads a single data.
 846:Drivers/BSP/STM32746G-Discovery/stm32746g_discovery.c ****   * @param  Addr: I2C address
 847:Drivers/BSP/STM32746G-Discovery/stm32746g_discovery.c ****   * @param  Reg: Reg address
 848:Drivers/BSP/STM32746G-Discovery/stm32746g_discovery.c ****   * @retval Data to be read
 849:Drivers/BSP/STM32746G-Discovery/stm32746g_discovery.c ****   */
 850:Drivers/BSP/STM32746G-Discovery/stm32746g_discovery.c **** uint8_t TS_IO_Read(uint8_t Addr, uint8_t Reg)
 851:Drivers/BSP/STM32746G-Discovery/stm32746g_discovery.c **** {
 2034              		.loc 1 851 1 is_stmt 1 view -0
 2035              		.cfi_startproc
 2036              		@ args = 0, pretend = 0, frame = 8
 2037              		@ frame_needed = 0, uses_anonymous_args = 0
 2038              		.loc 1 851 1 is_stmt 0 view .LVU448
 2039 0000 00B5     		push	{lr}
 2040              	.LCFI64:
 2041              		.cfi_def_cfa_offset 4
 2042              		.cfi_offset 14, -4
 2043 0002 85B0     		sub	sp, sp, #20
 2044              	.LCFI65:
 2045              		.cfi_def_cfa_offset 24
 2046 0004 0A46     		mov	r2, r1
 852:Drivers/BSP/STM32746G-Discovery/stm32746g_discovery.c ****   uint8_t read_value = 0;
 2047              		.loc 1 852 3 is_stmt 1 view .LVU449
 2048              		.loc 1 852 11 is_stmt 0 view .LVU450
 2049 0006 0023     		movs	r3, #0
 2050 0008 8DF80F30 		strb	r3, [sp, #15]
 853:Drivers/BSP/STM32746G-Discovery/stm32746g_discovery.c **** 
 854:Drivers/BSP/STM32746G-Discovery/stm32746g_discovery.c ****   I2Cx_ReadMultiple(&hI2cAudioHandler, Addr, Reg, I2C_MEMADD_SIZE_8BIT, (uint8_t*)&read_value, 1);
 2051              		.loc 1 854 3 is_stmt 1 view .LVU451
 2052 000c 0123     		movs	r3, #1
 2053 000e 0193     		str	r3, [sp, #4]
 2054 0010 0DF10F01 		add	r1, sp, #15
 2055              	.LVL147:
 2056              		.loc 1 854 3 is_stmt 0 view .LVU452
 2057 0014 0091     		str	r1, [sp]
 2058 0016 0146     		mov	r1, r0
 2059 0018 0348     		ldr	r0, .L164
 2060              	.LVL148:
 2061              		.loc 1 854 3 view .LVU453
 2062 001a FFF7FEFF 		bl	I2Cx_ReadMultiple
 2063              	.LVL149:
 855:Drivers/BSP/STM32746G-Discovery/stm32746g_discovery.c **** 
 856:Drivers/BSP/STM32746G-Discovery/stm32746g_discovery.c ****   return read_value;
 2064              		.loc 1 856 3 is_stmt 1 view .LVU454
 857:Drivers/BSP/STM32746G-Discovery/stm32746g_discovery.c **** }
 2065              		.loc 1 857 1 is_stmt 0 view .LVU455
 2066 001e 9DF80F00 		ldrb	r0, [sp, #15]	@ zero_extendqisi2
 2067 0022 05B0     		add	sp, sp, #20
 2068              	.LCFI66:
ARM GAS  D:\cygwin64\tmp\ccVIozHZ.s 			page 56


 2069              		.cfi_def_cfa_offset 4
 2070              		@ sp needed
 2071 0024 5DF804FB 		ldr	pc, [sp], #4
 2072              	.L165:
 2073              		.align	2
 2074              	.L164:
 2075 0028 00000000 		.word	hI2cAudioHandler
 2076              		.cfi_endproc
 2077              	.LFE173:
 2079              		.section	.text.TS_IO_Delay,"ax",%progbits
 2080              		.align	1
 2081              		.global	TS_IO_Delay
 2082              		.syntax unified
 2083              		.thumb
 2084              		.thumb_func
 2086              	TS_IO_Delay:
 2087              	.LVL150:
 2088              	.LFB174:
 858:Drivers/BSP/STM32746G-Discovery/stm32746g_discovery.c **** 
 859:Drivers/BSP/STM32746G-Discovery/stm32746g_discovery.c **** /**
 860:Drivers/BSP/STM32746G-Discovery/stm32746g_discovery.c ****   * @brief  TS delay
 861:Drivers/BSP/STM32746G-Discovery/stm32746g_discovery.c ****   * @param  Delay: Delay in ms
 862:Drivers/BSP/STM32746G-Discovery/stm32746g_discovery.c ****   * @retval None
 863:Drivers/BSP/STM32746G-Discovery/stm32746g_discovery.c ****   */
 864:Drivers/BSP/STM32746G-Discovery/stm32746g_discovery.c **** void TS_IO_Delay(uint32_t Delay)
 865:Drivers/BSP/STM32746G-Discovery/stm32746g_discovery.c **** {
 2089              		.loc 1 865 1 is_stmt 1 view -0
 2090              		.cfi_startproc
 2091              		@ args = 0, pretend = 0, frame = 0
 2092              		@ frame_needed = 0, uses_anonymous_args = 0
 2093              		.loc 1 865 1 is_stmt 0 view .LVU457
 2094 0000 08B5     		push	{r3, lr}
 2095              	.LCFI67:
 2096              		.cfi_def_cfa_offset 8
 2097              		.cfi_offset 3, -8
 2098              		.cfi_offset 14, -4
 866:Drivers/BSP/STM32746G-Discovery/stm32746g_discovery.c ****   HAL_Delay(Delay);
 2099              		.loc 1 866 3 is_stmt 1 view .LVU458
 2100 0002 FFF7FEFF 		bl	HAL_Delay
 2101              	.LVL151:
 867:Drivers/BSP/STM32746G-Discovery/stm32746g_discovery.c **** }
 2102              		.loc 1 867 1 is_stmt 0 view .LVU459
 2103 0006 08BD     		pop	{r3, pc}
 2104              		.cfi_endproc
 2105              	.LFE174:
 2107              		.section	.bss.hI2cExtHandler,"aw",%nobits
 2108              		.align	2
 2111              	hI2cExtHandler:
 2112 0000 00000000 		.space	84
 2112      00000000 
 2112      00000000 
 2112      00000000 
 2112      00000000 
 2113              		.section	.bss.hI2cAudioHandler,"aw",%nobits
 2114              		.align	2
 2117              	hI2cAudioHandler:
 2118 0000 00000000 		.space	84
ARM GAS  D:\cygwin64\tmp\ccVIozHZ.s 			page 57


 2118      00000000 
 2118      00000000 
 2118      00000000 
 2118      00000000 
 2119              		.global	COM_RX_AF
 2120              		.section	.rodata.COM_RX_AF,"a"
 2121              		.align	2
 2124              	COM_RX_AF:
 2125 0000 0700     		.short	7
 2126              		.global	COM_TX_AF
 2127              		.section	.rodata.COM_TX_AF,"a"
 2128              		.align	2
 2131              	COM_TX_AF:
 2132 0000 0700     		.short	7
 2133              		.global	COM_RX_PIN
 2134              		.section	.rodata.COM_RX_PIN,"a"
 2135              		.align	2
 2138              	COM_RX_PIN:
 2139 0000 8000     		.short	128
 2140              		.global	COM_TX_PIN
 2141              		.section	.rodata.COM_TX_PIN,"a"
 2142              		.align	2
 2145              	COM_TX_PIN:
 2146 0000 0002     		.short	512
 2147              		.global	COM_RX_PORT
 2148              		.section	.data.COM_RX_PORT,"aw"
 2149              		.align	2
 2152              	COM_RX_PORT:
 2153 0000 00040240 		.word	1073873920
 2154              		.global	COM_TX_PORT
 2155              		.section	.data.COM_TX_PORT,"aw"
 2156              		.align	2
 2159              	COM_TX_PORT:
 2160 0000 00000240 		.word	1073872896
 2161              		.global	COM_USART
 2162              		.section	.data.COM_USART,"aw"
 2163              		.align	2
 2166              	COM_USART:
 2167 0000 00100140 		.word	1073811456
 2168              		.global	BUTTON_IRQn
 2169              		.section	.rodata.BUTTON_IRQn,"a"
 2170              		.align	2
 2173              	BUTTON_IRQn:
 2174 0000 2800     		.short	40
 2175 0002 2800     		.short	40
 2176 0004 2800     		.short	40
 2177              		.global	BUTTON_PIN
 2178              		.section	.rodata.BUTTON_PIN,"a"
 2179              		.align	2
 2182              	BUTTON_PIN:
 2183 0000 0008     		.short	2048
 2184 0002 0008     		.short	2048
 2185 0004 0008     		.short	2048
 2186              		.global	BUTTON_PORT
 2187              		.section	.data.BUTTON_PORT,"aw"
 2188              		.align	2
 2191              	BUTTON_PORT:
ARM GAS  D:\cygwin64\tmp\ccVIozHZ.s 			page 58


 2192 0000 00200240 		.word	1073881088
 2193 0004 00200240 		.word	1073881088
 2194 0008 00200240 		.word	1073881088
 2195              		.global	GPIO_PIN
 2196              		.section	.rodata.GPIO_PIN,"a"
 2197              		.align	2
 2200              	GPIO_PIN:
 2201 0000 02000000 		.word	2
 2202              		.text
 2203              	.Letext0:
 2204              		.file 2 "Drivers/CMSIS/Device/ST/STM32F7xx/Include/stm32f746xx.h"
 2205              		.file 3 "D:/arm-none-eabi-gcc/arm-gnu-toolchain-13.2.rel1-mingw-w64-i686-arm-none-eabi/arm-gnu-too
 2206              		.file 4 "D:/arm-none-eabi-gcc/arm-gnu-toolchain-13.2.rel1-mingw-w64-i686-arm-none-eabi/arm-gnu-too
 2207              		.file 5 "Drivers/STM32F7xx_HAL_Driver/Inc/stm32f7xx_hal_def.h"
 2208              		.file 6 "Drivers/STM32F7xx_HAL_Driver/Inc/stm32f7xx_hal_gpio.h"
 2209              		.file 7 "Drivers/STM32F7xx_HAL_Driver/Inc/stm32f7xx_hal_dma.h"
 2210              		.file 8 "Drivers/STM32F7xx_HAL_Driver/Inc/stm32f7xx_hal_i2c.h"
 2211              		.file 9 "Drivers/STM32F7xx_HAL_Driver/Inc/stm32f7xx_hal_uart.h"
 2212              		.file 10 "Drivers/BSP/STM32746G-Discovery/stm32746g_discovery.h"
 2213              		.file 11 "Drivers/STM32F7xx_HAL_Driver/Inc/stm32f7xx_hal.h"
 2214              		.file 12 "Drivers/STM32F7xx_HAL_Driver/Inc/stm32f7xx_hal_cortex.h"
ARM GAS  D:\cygwin64\tmp\ccVIozHZ.s 			page 59

