ARM GAS  D:\cygwin64\tmp\ccfPYmj9.s 			page 1


   1              		.cpu cortex-m7
   2              		.arch armv7e-m
   3              		.fpu fpv5-sp-d16
   4              		.eabi_attribute 27, 1
   5              		.eabi_attribute 28, 1
   6              		.eabi_attribute 20, 1
   7              		.eabi_attribute 21, 1
   8              		.eabi_attribute 23, 3
   9              		.eabi_attribute 24, 1
  10              		.eabi_attribute 25, 1
  11              		.eabi_attribute 26, 1
  12              		.eabi_attribute 30, 1
  13              		.eabi_attribute 34, 1
  14              		.eabi_attribute 18, 4
  15              		.file	"stm32746g_discovery_sd.c"
  16              		.text
  17              	.Ltext0:
  18              		.cfi_sections	.debug_frame
  19              		.file 1 "Drivers/BSP/STM32746G-Discovery/stm32746g_discovery_sd.c"
  20              		.section	.text.BSP_SD_ITConfig,"ax",%progbits
  21              		.align	1
  22              		.global	BSP_SD_ITConfig
  23              		.syntax unified
  24              		.thumb
  25              		.thumb_func
  27              	BSP_SD_ITConfig:
  28              	.LFB143:
   1:Drivers/BSP/STM32746G-Discovery/stm32746g_discovery_sd.c **** /**
   2:Drivers/BSP/STM32746G-Discovery/stm32746g_discovery_sd.c ****   ******************************************************************************
   3:Drivers/BSP/STM32746G-Discovery/stm32746g_discovery_sd.c ****   * @file    stm32746g_discovery_sd.c
   4:Drivers/BSP/STM32746G-Discovery/stm32746g_discovery_sd.c ****   * @author  MCD Application Team
   5:Drivers/BSP/STM32746G-Discovery/stm32746g_discovery_sd.c ****   * @brief   This file includes the uSD card driver mounted on STM32746G-Discovery
   6:Drivers/BSP/STM32746G-Discovery/stm32746g_discovery_sd.c ****   *          board.
   7:Drivers/BSP/STM32746G-Discovery/stm32746g_discovery_sd.c ****   *
   8:Drivers/BSP/STM32746G-Discovery/stm32746g_discovery_sd.c ****   ******************************************************************************
   9:Drivers/BSP/STM32746G-Discovery/stm32746g_discovery_sd.c ****   * @attention
  10:Drivers/BSP/STM32746G-Discovery/stm32746g_discovery_sd.c ****   *
  11:Drivers/BSP/STM32746G-Discovery/stm32746g_discovery_sd.c ****   * Copyright (c) 2016 STMicroelectronics.
  12:Drivers/BSP/STM32746G-Discovery/stm32746g_discovery_sd.c ****   * All rights reserved.
  13:Drivers/BSP/STM32746G-Discovery/stm32746g_discovery_sd.c ****   *
  14:Drivers/BSP/STM32746G-Discovery/stm32746g_discovery_sd.c ****   * This software is licensed under terms that can be found in the LICENSE file
  15:Drivers/BSP/STM32746G-Discovery/stm32746g_discovery_sd.c ****   * in the root directory of this software component.
  16:Drivers/BSP/STM32746G-Discovery/stm32746g_discovery_sd.c ****   * If no LICENSE file comes with this software, it is provided AS-IS.
  17:Drivers/BSP/STM32746G-Discovery/stm32746g_discovery_sd.c ****   *
  18:Drivers/BSP/STM32746G-Discovery/stm32746g_discovery_sd.c ****   ******************************************************************************
  19:Drivers/BSP/STM32746G-Discovery/stm32746g_discovery_sd.c ****   @verbatim
  20:Drivers/BSP/STM32746G-Discovery/stm32746g_discovery_sd.c ****    1. How To use this driver:
  21:Drivers/BSP/STM32746G-Discovery/stm32746g_discovery_sd.c ****    --------------------------
  22:Drivers/BSP/STM32746G-Discovery/stm32746g_discovery_sd.c ****       - This driver is used to drive the micro SD external card mounted on STM32746G-Discovery
  23:Drivers/BSP/STM32746G-Discovery/stm32746g_discovery_sd.c ****         board.
  24:Drivers/BSP/STM32746G-Discovery/stm32746g_discovery_sd.c ****       - This driver does not need a specific component driver for the micro SD device
  25:Drivers/BSP/STM32746G-Discovery/stm32746g_discovery_sd.c ****         to be included with.
  26:Drivers/BSP/STM32746G-Discovery/stm32746g_discovery_sd.c ****    
  27:Drivers/BSP/STM32746G-Discovery/stm32746g_discovery_sd.c ****    2. Driver description:
  28:Drivers/BSP/STM32746G-Discovery/stm32746g_discovery_sd.c ****    ---------------------
  29:Drivers/BSP/STM32746G-Discovery/stm32746g_discovery_sd.c ****      + Initialization steps:
  30:Drivers/BSP/STM32746G-Discovery/stm32746g_discovery_sd.c ****         o Initialize the micro SD card using the BSP_SD_Init() function. This 
ARM GAS  D:\cygwin64\tmp\ccfPYmj9.s 			page 2


  31:Drivers/BSP/STM32746G-Discovery/stm32746g_discovery_sd.c ****           function includes the MSP layer hardware resources initialization and the
  32:Drivers/BSP/STM32746G-Discovery/stm32746g_discovery_sd.c ****           SDIO interface configuration to interface with the external micro SD. It 
  33:Drivers/BSP/STM32746G-Discovery/stm32746g_discovery_sd.c ****           also includes the micro SD initialization sequence.
  34:Drivers/BSP/STM32746G-Discovery/stm32746g_discovery_sd.c ****         o To check the SD card presence you can use the function BSP_SD_IsDetected() which 
  35:Drivers/BSP/STM32746G-Discovery/stm32746g_discovery_sd.c ****           returns the detection status 
  36:Drivers/BSP/STM32746G-Discovery/stm32746g_discovery_sd.c ****         o If SD presence detection interrupt mode is desired, you must configure the 
  37:Drivers/BSP/STM32746G-Discovery/stm32746g_discovery_sd.c ****           SD detection interrupt mode by calling the function BSP_SD_ITConfig(). The interrupt 
  38:Drivers/BSP/STM32746G-Discovery/stm32746g_discovery_sd.c ****           is generated as an external interrupt whenever the micro SD card is 
  39:Drivers/BSP/STM32746G-Discovery/stm32746g_discovery_sd.c ****           plugged/unplugged in/from the board.
  40:Drivers/BSP/STM32746G-Discovery/stm32746g_discovery_sd.c ****         o The function BSP_SD_GetCardInfo() is used to get the micro SD card information 
  41:Drivers/BSP/STM32746G-Discovery/stm32746g_discovery_sd.c ****           which is stored in the structure "HAL_SD_CardInfoTypedef".
  42:Drivers/BSP/STM32746G-Discovery/stm32746g_discovery_sd.c ****      
  43:Drivers/BSP/STM32746G-Discovery/stm32746g_discovery_sd.c ****      + Micro SD card operations
  44:Drivers/BSP/STM32746G-Discovery/stm32746g_discovery_sd.c ****         o The micro SD card can be accessed with read/write block(s) operations once 
  45:Drivers/BSP/STM32746G-Discovery/stm32746g_discovery_sd.c ****           it is ready for access. The access can be performed whether using the polling
  46:Drivers/BSP/STM32746G-Discovery/stm32746g_discovery_sd.c ****           mode by calling the functions BSP_SD_ReadBlocks()/BSP_SD_WriteBlocks(), or by DMA 
  47:Drivers/BSP/STM32746G-Discovery/stm32746g_discovery_sd.c ****           transfer using the functions BSP_SD_ReadBlocks_DMA()/BSP_SD_WriteBlocks_DMA()
  48:Drivers/BSP/STM32746G-Discovery/stm32746g_discovery_sd.c ****         o The DMA transfer complete is used with interrupt mode. Once the SD transfer
  49:Drivers/BSP/STM32746G-Discovery/stm32746g_discovery_sd.c ****           is complete, the SD interrupt is handled using the function BSP_SD_IRQHandler(),
  50:Drivers/BSP/STM32746G-Discovery/stm32746g_discovery_sd.c ****           the DMA Tx/Rx transfer complete are handled using the functions
  51:Drivers/BSP/STM32746G-Discovery/stm32746g_discovery_sd.c ****           BSP_SD_DMA_Tx_IRQHandler()/BSP_SD_DMA_Rx_IRQHandler(). The corresponding user callbacks 
  52:Drivers/BSP/STM32746G-Discovery/stm32746g_discovery_sd.c ****           are implemented by the user at application level. 
  53:Drivers/BSP/STM32746G-Discovery/stm32746g_discovery_sd.c ****         o The SD erase block(s) is performed using the function BSP_SD_Erase() with specifying
  54:Drivers/BSP/STM32746G-Discovery/stm32746g_discovery_sd.c ****           the number of blocks to erase.
  55:Drivers/BSP/STM32746G-Discovery/stm32746g_discovery_sd.c ****         o The SD runtime status is returned when calling the function BSP_SD_GetCardState().
  56:Drivers/BSP/STM32746G-Discovery/stm32746g_discovery_sd.c **** 
  57:Drivers/BSP/STM32746G-Discovery/stm32746g_discovery_sd.c ****   @endverbatim
  58:Drivers/BSP/STM32746G-Discovery/stm32746g_discovery_sd.c ****   ******************************************************************************
  59:Drivers/BSP/STM32746G-Discovery/stm32746g_discovery_sd.c ****   */ 
  60:Drivers/BSP/STM32746G-Discovery/stm32746g_discovery_sd.c **** 
  61:Drivers/BSP/STM32746G-Discovery/stm32746g_discovery_sd.c **** /* Dependencies
  62:Drivers/BSP/STM32746G-Discovery/stm32746g_discovery_sd.c **** - stm32746g_discovery.c
  63:Drivers/BSP/STM32746G-Discovery/stm32746g_discovery_sd.c **** - stm32f7xx_hal_sd.c
  64:Drivers/BSP/STM32746G-Discovery/stm32746g_discovery_sd.c **** - stm32f7xx_ll_sdmmc.c
  65:Drivers/BSP/STM32746G-Discovery/stm32746g_discovery_sd.c **** - stm32f7xx_hal_dma.c  
  66:Drivers/BSP/STM32746G-Discovery/stm32746g_discovery_sd.c **** - stm32f7xx_hal_gpio.c
  67:Drivers/BSP/STM32746G-Discovery/stm32746g_discovery_sd.c **** - stm32f7xx_hal_cortex.c
  68:Drivers/BSP/STM32746G-Discovery/stm32746g_discovery_sd.c **** - stm32f7xx_hal_rcc_ex.h
  69:Drivers/BSP/STM32746G-Discovery/stm32746g_discovery_sd.c **** EndDependencies */
  70:Drivers/BSP/STM32746G-Discovery/stm32746g_discovery_sd.c **** 
  71:Drivers/BSP/STM32746G-Discovery/stm32746g_discovery_sd.c **** /* Includes ------------------------------------------------------------------*/
  72:Drivers/BSP/STM32746G-Discovery/stm32746g_discovery_sd.c **** #include "stm32746g_discovery_sd.h"
  73:Drivers/BSP/STM32746G-Discovery/stm32746g_discovery_sd.c **** 
  74:Drivers/BSP/STM32746G-Discovery/stm32746g_discovery_sd.c **** /** @addtogroup BSP
  75:Drivers/BSP/STM32746G-Discovery/stm32746g_discovery_sd.c ****   * @{
  76:Drivers/BSP/STM32746G-Discovery/stm32746g_discovery_sd.c ****   */
  77:Drivers/BSP/STM32746G-Discovery/stm32746g_discovery_sd.c **** 
  78:Drivers/BSP/STM32746G-Discovery/stm32746g_discovery_sd.c **** /** @addtogroup STM32746G_DISCOVERY
  79:Drivers/BSP/STM32746G-Discovery/stm32746g_discovery_sd.c ****   * @{
  80:Drivers/BSP/STM32746G-Discovery/stm32746g_discovery_sd.c ****   */ 
  81:Drivers/BSP/STM32746G-Discovery/stm32746g_discovery_sd.c ****   
  82:Drivers/BSP/STM32746G-Discovery/stm32746g_discovery_sd.c **** /** @defgroup STM32746G_DISCOVERY_SD STM32746G_DISCOVERY_SD
  83:Drivers/BSP/STM32746G-Discovery/stm32746g_discovery_sd.c ****   * @{
  84:Drivers/BSP/STM32746G-Discovery/stm32746g_discovery_sd.c ****   */ 
  85:Drivers/BSP/STM32746G-Discovery/stm32746g_discovery_sd.c **** 
  86:Drivers/BSP/STM32746G-Discovery/stm32746g_discovery_sd.c **** 
  87:Drivers/BSP/STM32746G-Discovery/stm32746g_discovery_sd.c **** /** @defgroup STM32746G_DISCOVERY_SD_Private_TypesDefinitions STM32746G_DISCOVERY_SD Private Types 
ARM GAS  D:\cygwin64\tmp\ccfPYmj9.s 			page 3


  88:Drivers/BSP/STM32746G-Discovery/stm32746g_discovery_sd.c ****   * @{
  89:Drivers/BSP/STM32746G-Discovery/stm32746g_discovery_sd.c ****   */
  90:Drivers/BSP/STM32746G-Discovery/stm32746g_discovery_sd.c **** /**
  91:Drivers/BSP/STM32746G-Discovery/stm32746g_discovery_sd.c ****   * @}
  92:Drivers/BSP/STM32746G-Discovery/stm32746g_discovery_sd.c ****   */ 
  93:Drivers/BSP/STM32746G-Discovery/stm32746g_discovery_sd.c **** 
  94:Drivers/BSP/STM32746G-Discovery/stm32746g_discovery_sd.c **** /** @defgroup STM32746G_DISCOVERY_SD_Private_Defines STM32746G_DISCOVERY_SD Private Defines
  95:Drivers/BSP/STM32746G-Discovery/stm32746g_discovery_sd.c ****   * @{
  96:Drivers/BSP/STM32746G-Discovery/stm32746g_discovery_sd.c ****   */
  97:Drivers/BSP/STM32746G-Discovery/stm32746g_discovery_sd.c **** /**
  98:Drivers/BSP/STM32746G-Discovery/stm32746g_discovery_sd.c ****   * @}
  99:Drivers/BSP/STM32746G-Discovery/stm32746g_discovery_sd.c ****   */ 
 100:Drivers/BSP/STM32746G-Discovery/stm32746g_discovery_sd.c ****   
 101:Drivers/BSP/STM32746G-Discovery/stm32746g_discovery_sd.c **** /** @defgroup STM32746G_DISCOVERY_SD_Private_Macros STM32746G_DISCOVERY_SD Private Macros
 102:Drivers/BSP/STM32746G-Discovery/stm32746g_discovery_sd.c ****   * @{
 103:Drivers/BSP/STM32746G-Discovery/stm32746g_discovery_sd.c ****   */    
 104:Drivers/BSP/STM32746G-Discovery/stm32746g_discovery_sd.c **** /**
 105:Drivers/BSP/STM32746G-Discovery/stm32746g_discovery_sd.c ****   * @}
 106:Drivers/BSP/STM32746G-Discovery/stm32746g_discovery_sd.c ****   */  
 107:Drivers/BSP/STM32746G-Discovery/stm32746g_discovery_sd.c **** 
 108:Drivers/BSP/STM32746G-Discovery/stm32746g_discovery_sd.c **** /** @defgroup STM32746G_DISCOVERY_SD_Private_Variables STM32746G_DISCOVERY_SD Private Variables
 109:Drivers/BSP/STM32746G-Discovery/stm32746g_discovery_sd.c ****   * @{
 110:Drivers/BSP/STM32746G-Discovery/stm32746g_discovery_sd.c ****   */
 111:Drivers/BSP/STM32746G-Discovery/stm32746g_discovery_sd.c **** SD_HandleTypeDef uSdHandle;
 112:Drivers/BSP/STM32746G-Discovery/stm32746g_discovery_sd.c **** 
 113:Drivers/BSP/STM32746G-Discovery/stm32746g_discovery_sd.c **** /**
 114:Drivers/BSP/STM32746G-Discovery/stm32746g_discovery_sd.c ****   * @}
 115:Drivers/BSP/STM32746G-Discovery/stm32746g_discovery_sd.c ****   */ 
 116:Drivers/BSP/STM32746G-Discovery/stm32746g_discovery_sd.c ****   
 117:Drivers/BSP/STM32746G-Discovery/stm32746g_discovery_sd.c **** /** @defgroup STM32746G_DISCOVERY_SD_Private_FunctionPrototypes STM32746G_DISCOVERY_SD Private Func
 118:Drivers/BSP/STM32746G-Discovery/stm32746g_discovery_sd.c ****   * @{
 119:Drivers/BSP/STM32746G-Discovery/stm32746g_discovery_sd.c ****   */
 120:Drivers/BSP/STM32746G-Discovery/stm32746g_discovery_sd.c **** /**
 121:Drivers/BSP/STM32746G-Discovery/stm32746g_discovery_sd.c ****   * @}
 122:Drivers/BSP/STM32746G-Discovery/stm32746g_discovery_sd.c ****   */ 
 123:Drivers/BSP/STM32746G-Discovery/stm32746g_discovery_sd.c ****   
 124:Drivers/BSP/STM32746G-Discovery/stm32746g_discovery_sd.c **** /** @defgroup STM32746G_DISCOVERY_SD_Exported_Functions STM32746G_DISCOVERY_SD Exported Functions
 125:Drivers/BSP/STM32746G-Discovery/stm32746g_discovery_sd.c ****   * @{
 126:Drivers/BSP/STM32746G-Discovery/stm32746g_discovery_sd.c ****   */
 127:Drivers/BSP/STM32746G-Discovery/stm32746g_discovery_sd.c **** 
 128:Drivers/BSP/STM32746G-Discovery/stm32746g_discovery_sd.c **** /**
 129:Drivers/BSP/STM32746G-Discovery/stm32746g_discovery_sd.c ****   * @brief  Initializes the SD card device.
 130:Drivers/BSP/STM32746G-Discovery/stm32746g_discovery_sd.c ****   * @retval SD status
 131:Drivers/BSP/STM32746G-Discovery/stm32746g_discovery_sd.c ****   */
 132:Drivers/BSP/STM32746G-Discovery/stm32746g_discovery_sd.c **** uint8_t BSP_SD_Init(void)
 133:Drivers/BSP/STM32746G-Discovery/stm32746g_discovery_sd.c **** { 
 134:Drivers/BSP/STM32746G-Discovery/stm32746g_discovery_sd.c ****   uint8_t sd_state = MSD_OK;
 135:Drivers/BSP/STM32746G-Discovery/stm32746g_discovery_sd.c ****   
 136:Drivers/BSP/STM32746G-Discovery/stm32746g_discovery_sd.c ****   /* uSD device interface configuration */
 137:Drivers/BSP/STM32746G-Discovery/stm32746g_discovery_sd.c ****   uSdHandle.Instance = SDMMC1;
 138:Drivers/BSP/STM32746G-Discovery/stm32746g_discovery_sd.c **** 
 139:Drivers/BSP/STM32746G-Discovery/stm32746g_discovery_sd.c ****   uSdHandle.Init.ClockEdge           = SDMMC_CLOCK_EDGE_RISING;
 140:Drivers/BSP/STM32746G-Discovery/stm32746g_discovery_sd.c ****   uSdHandle.Init.ClockBypass         = SDMMC_CLOCK_BYPASS_DISABLE;
 141:Drivers/BSP/STM32746G-Discovery/stm32746g_discovery_sd.c ****   uSdHandle.Init.ClockPowerSave      = SDMMC_CLOCK_POWER_SAVE_DISABLE;
 142:Drivers/BSP/STM32746G-Discovery/stm32746g_discovery_sd.c ****   uSdHandle.Init.BusWide             = SDMMC_BUS_WIDE_1B;
 143:Drivers/BSP/STM32746G-Discovery/stm32746g_discovery_sd.c ****   uSdHandle.Init.HardwareFlowControl = SDMMC_HARDWARE_FLOW_CONTROL_DISABLE;
 144:Drivers/BSP/STM32746G-Discovery/stm32746g_discovery_sd.c ****   uSdHandle.Init.ClockDiv            = SDMMC_TRANSFER_CLK_DIV;
ARM GAS  D:\cygwin64\tmp\ccfPYmj9.s 			page 4


 145:Drivers/BSP/STM32746G-Discovery/stm32746g_discovery_sd.c ****   
 146:Drivers/BSP/STM32746G-Discovery/stm32746g_discovery_sd.c ****   /* Msp SD Detect pin initialization */
 147:Drivers/BSP/STM32746G-Discovery/stm32746g_discovery_sd.c ****   BSP_SD_Detect_MspInit(&uSdHandle, NULL);
 148:Drivers/BSP/STM32746G-Discovery/stm32746g_discovery_sd.c ****   if(BSP_SD_IsDetected() != SD_PRESENT)   /* Check if SD card is present */
 149:Drivers/BSP/STM32746G-Discovery/stm32746g_discovery_sd.c ****   {
 150:Drivers/BSP/STM32746G-Discovery/stm32746g_discovery_sd.c ****     return MSD_ERROR_SD_NOT_PRESENT;
 151:Drivers/BSP/STM32746G-Discovery/stm32746g_discovery_sd.c ****   }
 152:Drivers/BSP/STM32746G-Discovery/stm32746g_discovery_sd.c ****   
 153:Drivers/BSP/STM32746G-Discovery/stm32746g_discovery_sd.c ****   /* Msp SD initialization */
 154:Drivers/BSP/STM32746G-Discovery/stm32746g_discovery_sd.c ****   BSP_SD_MspInit(&uSdHandle, NULL);
 155:Drivers/BSP/STM32746G-Discovery/stm32746g_discovery_sd.c **** 
 156:Drivers/BSP/STM32746G-Discovery/stm32746g_discovery_sd.c ****   /* HAL SD initialization */
 157:Drivers/BSP/STM32746G-Discovery/stm32746g_discovery_sd.c ****   if(HAL_SD_Init(&uSdHandle) != HAL_OK)
 158:Drivers/BSP/STM32746G-Discovery/stm32746g_discovery_sd.c ****   {
 159:Drivers/BSP/STM32746G-Discovery/stm32746g_discovery_sd.c ****     sd_state = MSD_ERROR;
 160:Drivers/BSP/STM32746G-Discovery/stm32746g_discovery_sd.c ****   }
 161:Drivers/BSP/STM32746G-Discovery/stm32746g_discovery_sd.c ****   
 162:Drivers/BSP/STM32746G-Discovery/stm32746g_discovery_sd.c ****   /* Configure SD Bus width */
 163:Drivers/BSP/STM32746G-Discovery/stm32746g_discovery_sd.c ****   if(sd_state == MSD_OK)
 164:Drivers/BSP/STM32746G-Discovery/stm32746g_discovery_sd.c ****   {
 165:Drivers/BSP/STM32746G-Discovery/stm32746g_discovery_sd.c ****     /* Enable wide operation */ 
 166:Drivers/BSP/STM32746G-Discovery/stm32746g_discovery_sd.c ****     if(HAL_SD_ConfigWideBusOperation(&uSdHandle, SDMMC_BUS_WIDE_4B) != HAL_OK)
 167:Drivers/BSP/STM32746G-Discovery/stm32746g_discovery_sd.c ****     {
 168:Drivers/BSP/STM32746G-Discovery/stm32746g_discovery_sd.c ****       sd_state = MSD_ERROR;
 169:Drivers/BSP/STM32746G-Discovery/stm32746g_discovery_sd.c ****     }
 170:Drivers/BSP/STM32746G-Discovery/stm32746g_discovery_sd.c ****     else
 171:Drivers/BSP/STM32746G-Discovery/stm32746g_discovery_sd.c ****     {
 172:Drivers/BSP/STM32746G-Discovery/stm32746g_discovery_sd.c ****       sd_state = MSD_OK;
 173:Drivers/BSP/STM32746G-Discovery/stm32746g_discovery_sd.c ****     }
 174:Drivers/BSP/STM32746G-Discovery/stm32746g_discovery_sd.c ****   }
 175:Drivers/BSP/STM32746G-Discovery/stm32746g_discovery_sd.c ****   
 176:Drivers/BSP/STM32746G-Discovery/stm32746g_discovery_sd.c ****   return  sd_state;
 177:Drivers/BSP/STM32746G-Discovery/stm32746g_discovery_sd.c **** }
 178:Drivers/BSP/STM32746G-Discovery/stm32746g_discovery_sd.c **** 
 179:Drivers/BSP/STM32746G-Discovery/stm32746g_discovery_sd.c **** /**
 180:Drivers/BSP/STM32746G-Discovery/stm32746g_discovery_sd.c ****   * @brief  DeInitializes the SD card device.
 181:Drivers/BSP/STM32746G-Discovery/stm32746g_discovery_sd.c ****   * @retval SD status
 182:Drivers/BSP/STM32746G-Discovery/stm32746g_discovery_sd.c ****   */
 183:Drivers/BSP/STM32746G-Discovery/stm32746g_discovery_sd.c **** uint8_t BSP_SD_DeInit(void)
 184:Drivers/BSP/STM32746G-Discovery/stm32746g_discovery_sd.c **** { 
 185:Drivers/BSP/STM32746G-Discovery/stm32746g_discovery_sd.c ****   uint8_t sd_state = MSD_OK;
 186:Drivers/BSP/STM32746G-Discovery/stm32746g_discovery_sd.c ****  
 187:Drivers/BSP/STM32746G-Discovery/stm32746g_discovery_sd.c ****   uSdHandle.Instance = SDMMC1;
 188:Drivers/BSP/STM32746G-Discovery/stm32746g_discovery_sd.c ****   
 189:Drivers/BSP/STM32746G-Discovery/stm32746g_discovery_sd.c ****   /* HAL SD deinitialization */
 190:Drivers/BSP/STM32746G-Discovery/stm32746g_discovery_sd.c ****   if(HAL_SD_DeInit(&uSdHandle) != HAL_OK)
 191:Drivers/BSP/STM32746G-Discovery/stm32746g_discovery_sd.c ****   {
 192:Drivers/BSP/STM32746G-Discovery/stm32746g_discovery_sd.c ****     sd_state = MSD_ERROR;
 193:Drivers/BSP/STM32746G-Discovery/stm32746g_discovery_sd.c ****   }
 194:Drivers/BSP/STM32746G-Discovery/stm32746g_discovery_sd.c **** 
 195:Drivers/BSP/STM32746G-Discovery/stm32746g_discovery_sd.c ****   /* Msp SD deinitialization */
 196:Drivers/BSP/STM32746G-Discovery/stm32746g_discovery_sd.c ****   uSdHandle.Instance = SDMMC1;
 197:Drivers/BSP/STM32746G-Discovery/stm32746g_discovery_sd.c ****   BSP_SD_MspDeInit(&uSdHandle, NULL);
 198:Drivers/BSP/STM32746G-Discovery/stm32746g_discovery_sd.c ****   
 199:Drivers/BSP/STM32746G-Discovery/stm32746g_discovery_sd.c ****   return  sd_state;
 200:Drivers/BSP/STM32746G-Discovery/stm32746g_discovery_sd.c **** }
 201:Drivers/BSP/STM32746G-Discovery/stm32746g_discovery_sd.c **** 
ARM GAS  D:\cygwin64\tmp\ccfPYmj9.s 			page 5


 202:Drivers/BSP/STM32746G-Discovery/stm32746g_discovery_sd.c **** /**
 203:Drivers/BSP/STM32746G-Discovery/stm32746g_discovery_sd.c ****   * @brief  Configures Interrupt mode for SD detection pin.
 204:Drivers/BSP/STM32746G-Discovery/stm32746g_discovery_sd.c ****   * @retval Returns MSD_OK
 205:Drivers/BSP/STM32746G-Discovery/stm32746g_discovery_sd.c ****   */
 206:Drivers/BSP/STM32746G-Discovery/stm32746g_discovery_sd.c **** uint8_t BSP_SD_ITConfig(void)
 207:Drivers/BSP/STM32746G-Discovery/stm32746g_discovery_sd.c **** {  
  29              		.loc 1 207 1 view -0
  30              		.cfi_startproc
  31              		@ args = 0, pretend = 0, frame = 24
  32              		@ frame_needed = 0, uses_anonymous_args = 0
  33 0000 00B5     		push	{lr}
  34              	.LCFI0:
  35              		.cfi_def_cfa_offset 4
  36              		.cfi_offset 14, -4
  37 0002 87B0     		sub	sp, sp, #28
  38              	.LCFI1:
  39              		.cfi_def_cfa_offset 32
 208:Drivers/BSP/STM32746G-Discovery/stm32746g_discovery_sd.c ****   GPIO_InitTypeDef gpio_init_structure;
  40              		.loc 1 208 3 view .LVU1
 209:Drivers/BSP/STM32746G-Discovery/stm32746g_discovery_sd.c **** 
 210:Drivers/BSP/STM32746G-Discovery/stm32746g_discovery_sd.c ****   /* Configure Interrupt mode for SD detection pin */  
 211:Drivers/BSP/STM32746G-Discovery/stm32746g_discovery_sd.c ****   gpio_init_structure.Pin = SD_DETECT_PIN;
  41              		.loc 1 211 3 view .LVU2
  42              		.loc 1 211 27 is_stmt 0 view .LVU3
  43 0004 4FF40053 		mov	r3, #8192
  44 0008 0193     		str	r3, [sp, #4]
 212:Drivers/BSP/STM32746G-Discovery/stm32746g_discovery_sd.c ****   gpio_init_structure.Pull = GPIO_PULLUP;
  45              		.loc 1 212 3 is_stmt 1 view .LVU4
  46              		.loc 1 212 28 is_stmt 0 view .LVU5
  47 000a 0123     		movs	r3, #1
  48 000c 0393     		str	r3, [sp, #12]
 213:Drivers/BSP/STM32746G-Discovery/stm32746g_discovery_sd.c ****   gpio_init_structure.Speed = GPIO_SPEED_FAST;
  49              		.loc 1 213 3 is_stmt 1 view .LVU6
  50              		.loc 1 213 29 is_stmt 0 view .LVU7
  51 000e 0223     		movs	r3, #2
  52 0010 0493     		str	r3, [sp, #16]
 214:Drivers/BSP/STM32746G-Discovery/stm32746g_discovery_sd.c ****   gpio_init_structure.Mode = GPIO_MODE_IT_RISING_FALLING;
  53              		.loc 1 214 3 is_stmt 1 view .LVU8
  54              		.loc 1 214 28 is_stmt 0 view .LVU9
  55 0012 4FF44413 		mov	r3, #3211264
  56 0016 0293     		str	r3, [sp, #8]
 215:Drivers/BSP/STM32746G-Discovery/stm32746g_discovery_sd.c ****   HAL_GPIO_Init(SD_DETECT_GPIO_PORT, &gpio_init_structure);
  57              		.loc 1 215 3 is_stmt 1 view .LVU10
  58 0018 01A9     		add	r1, sp, #4
  59 001a 0748     		ldr	r0, .L3
  60 001c FFF7FEFF 		bl	HAL_GPIO_Init
  61              	.LVL0:
 216:Drivers/BSP/STM32746G-Discovery/stm32746g_discovery_sd.c **** 
 217:Drivers/BSP/STM32746G-Discovery/stm32746g_discovery_sd.c ****   /* Enable and set SD detect EXTI Interrupt to the lowest priority */
 218:Drivers/BSP/STM32746G-Discovery/stm32746g_discovery_sd.c ****   HAL_NVIC_SetPriority((IRQn_Type)(SD_DETECT_EXTI_IRQn), 0x0F, 0x00);
  62              		.loc 1 218 3 view .LVU11
  63 0020 0022     		movs	r2, #0
  64 0022 0F21     		movs	r1, #15
  65 0024 2820     		movs	r0, #40
  66 0026 FFF7FEFF 		bl	HAL_NVIC_SetPriority
  67              	.LVL1:
 219:Drivers/BSP/STM32746G-Discovery/stm32746g_discovery_sd.c ****   HAL_NVIC_EnableIRQ((IRQn_Type)(SD_DETECT_EXTI_IRQn));
ARM GAS  D:\cygwin64\tmp\ccfPYmj9.s 			page 6


  68              		.loc 1 219 3 view .LVU12
  69 002a 2820     		movs	r0, #40
  70 002c FFF7FEFF 		bl	HAL_NVIC_EnableIRQ
  71              	.LVL2:
 220:Drivers/BSP/STM32746G-Discovery/stm32746g_discovery_sd.c **** 
 221:Drivers/BSP/STM32746G-Discovery/stm32746g_discovery_sd.c ****   return MSD_OK;
  72              		.loc 1 221 3 view .LVU13
 222:Drivers/BSP/STM32746G-Discovery/stm32746g_discovery_sd.c **** }
  73              		.loc 1 222 1 is_stmt 0 view .LVU14
  74 0030 0020     		movs	r0, #0
  75 0032 07B0     		add	sp, sp, #28
  76              	.LCFI2:
  77              		.cfi_def_cfa_offset 4
  78              		@ sp needed
  79 0034 5DF804FB 		ldr	pc, [sp], #4
  80              	.L4:
  81              		.align	2
  82              	.L3:
  83 0038 00080240 		.word	1073874944
  84              		.cfi_endproc
  85              	.LFE143:
  87              		.section	.text.BSP_SD_IsDetected,"ax",%progbits
  88              		.align	1
  89              		.global	BSP_SD_IsDetected
  90              		.syntax unified
  91              		.thumb
  92              		.thumb_func
  94              	BSP_SD_IsDetected:
  95              	.LFB144:
 223:Drivers/BSP/STM32746G-Discovery/stm32746g_discovery_sd.c **** 
 224:Drivers/BSP/STM32746G-Discovery/stm32746g_discovery_sd.c **** /**
 225:Drivers/BSP/STM32746G-Discovery/stm32746g_discovery_sd.c ****   * @brief  Detects if SD card is correctly plugged in the memory slot or not.
 226:Drivers/BSP/STM32746G-Discovery/stm32746g_discovery_sd.c ****   * @retval Returns if SD is detected or not
 227:Drivers/BSP/STM32746G-Discovery/stm32746g_discovery_sd.c ****   */
 228:Drivers/BSP/STM32746G-Discovery/stm32746g_discovery_sd.c **** uint8_t BSP_SD_IsDetected(void)
 229:Drivers/BSP/STM32746G-Discovery/stm32746g_discovery_sd.c **** {
  96              		.loc 1 229 1 is_stmt 1 view -0
  97              		.cfi_startproc
  98              		@ args = 0, pretend = 0, frame = 8
  99              		@ frame_needed = 0, uses_anonymous_args = 0
 100 0000 00B5     		push	{lr}
 101              	.LCFI3:
 102              		.cfi_def_cfa_offset 4
 103              		.cfi_offset 14, -4
 104 0002 83B0     		sub	sp, sp, #12
 105              	.LCFI4:
 106              		.cfi_def_cfa_offset 16
 230:Drivers/BSP/STM32746G-Discovery/stm32746g_discovery_sd.c ****   __IO uint8_t      status = SD_PRESENT;
 107              		.loc 1 230 3 view .LVU16
 108              		.loc 1 230 21 is_stmt 0 view .LVU17
 109 0004 0123     		movs	r3, #1
 110 0006 8DF80730 		strb	r3, [sp, #7]
 231:Drivers/BSP/STM32746G-Discovery/stm32746g_discovery_sd.c ****   
 232:Drivers/BSP/STM32746G-Discovery/stm32746g_discovery_sd.c ****   /* Check SD card detect pin */
 233:Drivers/BSP/STM32746G-Discovery/stm32746g_discovery_sd.c ****   if (HAL_GPIO_ReadPin(SD_DETECT_GPIO_PORT, SD_DETECT_PIN) == GPIO_PIN_SET)
 111              		.loc 1 233 3 is_stmt 1 view .LVU18
 112              		.loc 1 233 7 is_stmt 0 view .LVU19
ARM GAS  D:\cygwin64\tmp\ccfPYmj9.s 			page 7


 113 000a 4FF40051 		mov	r1, #8192
 114 000e 0748     		ldr	r0, .L9
 115 0010 FFF7FEFF 		bl	HAL_GPIO_ReadPin
 116              	.LVL3:
 117              		.loc 1 233 6 discriminator 1 view .LVU20
 118 0014 0128     		cmp	r0, #1
 119 0016 04D0     		beq	.L8
 120              	.L6:
 234:Drivers/BSP/STM32746G-Discovery/stm32746g_discovery_sd.c ****   {
 235:Drivers/BSP/STM32746G-Discovery/stm32746g_discovery_sd.c ****     status = SD_NOT_PRESENT;
 236:Drivers/BSP/STM32746G-Discovery/stm32746g_discovery_sd.c ****   }
 237:Drivers/BSP/STM32746G-Discovery/stm32746g_discovery_sd.c **** 
 238:Drivers/BSP/STM32746G-Discovery/stm32746g_discovery_sd.c ****   return status;
 121              		.loc 1 238 3 is_stmt 1 view .LVU21
 122              		.loc 1 238 10 is_stmt 0 view .LVU22
 123 0018 9DF80700 		ldrb	r0, [sp, #7]	@ zero_extendqisi2
 239:Drivers/BSP/STM32746G-Discovery/stm32746g_discovery_sd.c **** }
 124              		.loc 1 239 1 view .LVU23
 125 001c 03B0     		add	sp, sp, #12
 126              	.LCFI5:
 127              		.cfi_remember_state
 128              		.cfi_def_cfa_offset 4
 129              		@ sp needed
 130 001e 5DF804FB 		ldr	pc, [sp], #4
 131              	.L8:
 132              	.LCFI6:
 133              		.cfi_restore_state
 235:Drivers/BSP/STM32746G-Discovery/stm32746g_discovery_sd.c ****   }
 134              		.loc 1 235 5 is_stmt 1 view .LVU24
 235:Drivers/BSP/STM32746G-Discovery/stm32746g_discovery_sd.c ****   }
 135              		.loc 1 235 12 is_stmt 0 view .LVU25
 136 0022 0023     		movs	r3, #0
 137 0024 8DF80730 		strb	r3, [sp, #7]
 138 0028 F6E7     		b	.L6
 139              	.L10:
 140 002a 00BF     		.align	2
 141              	.L9:
 142 002c 00080240 		.word	1073874944
 143              		.cfi_endproc
 144              	.LFE144:
 146              		.section	.text.BSP_SD_ReadBlocks,"ax",%progbits
 147              		.align	1
 148              		.global	BSP_SD_ReadBlocks
 149              		.syntax unified
 150              		.thumb
 151              		.thumb_func
 153              	BSP_SD_ReadBlocks:
 154              	.LVL4:
 155              	.LFB145:
 240:Drivers/BSP/STM32746G-Discovery/stm32746g_discovery_sd.c **** 
 241:Drivers/BSP/STM32746G-Discovery/stm32746g_discovery_sd.c **** /**
 242:Drivers/BSP/STM32746G-Discovery/stm32746g_discovery_sd.c ****   * @brief  Reads block(s) from a specified address in an SD card, in polling mode.
 243:Drivers/BSP/STM32746G-Discovery/stm32746g_discovery_sd.c ****   * @param  pData: Pointer to the buffer that will contain the data to transmit
 244:Drivers/BSP/STM32746G-Discovery/stm32746g_discovery_sd.c ****   * @param  ReadAddr: Address from where data is to be read
 245:Drivers/BSP/STM32746G-Discovery/stm32746g_discovery_sd.c ****   * @param  NumOfBlocks: Number of SD blocks to read
 246:Drivers/BSP/STM32746G-Discovery/stm32746g_discovery_sd.c ****   * @param  Timeout: Timeout for read operation
 247:Drivers/BSP/STM32746G-Discovery/stm32746g_discovery_sd.c ****   * @retval SD status
ARM GAS  D:\cygwin64\tmp\ccfPYmj9.s 			page 8


 248:Drivers/BSP/STM32746G-Discovery/stm32746g_discovery_sd.c ****   */
 249:Drivers/BSP/STM32746G-Discovery/stm32746g_discovery_sd.c **** uint8_t BSP_SD_ReadBlocks(uint32_t *pData, uint32_t ReadAddr, uint32_t NumOfBlocks, uint32_t Timeou
 250:Drivers/BSP/STM32746G-Discovery/stm32746g_discovery_sd.c **** {
 156              		.loc 1 250 1 is_stmt 1 view -0
 157              		.cfi_startproc
 158              		@ args = 0, pretend = 0, frame = 0
 159              		@ frame_needed = 0, uses_anonymous_args = 0
 160              		.loc 1 250 1 is_stmt 0 view .LVU27
 161 0000 00B5     		push	{lr}
 162              	.LCFI7:
 163              		.cfi_def_cfa_offset 4
 164              		.cfi_offset 14, -4
 165 0002 83B0     		sub	sp, sp, #12
 166              	.LCFI8:
 167              		.cfi_def_cfa_offset 16
 251:Drivers/BSP/STM32746G-Discovery/stm32746g_discovery_sd.c ****   if(HAL_SD_ReadBlocks(&uSdHandle, (uint8_t *)pData, ReadAddr, NumOfBlocks, Timeout) != HAL_OK)
 168              		.loc 1 251 3 is_stmt 1 view .LVU28
 169              		.loc 1 251 6 is_stmt 0 view .LVU29
 170 0004 0093     		str	r3, [sp]
 171 0006 1346     		mov	r3, r2
 172              	.LVL5:
 173              		.loc 1 251 6 view .LVU30
 174 0008 0A46     		mov	r2, r1
 175              	.LVL6:
 176              		.loc 1 251 6 view .LVU31
 177 000a 0146     		mov	r1, r0
 178              	.LVL7:
 179              		.loc 1 251 6 view .LVU32
 180 000c 0348     		ldr	r0, .L14
 181              	.LVL8:
 182              		.loc 1 251 6 view .LVU33
 183 000e FFF7FEFF 		bl	HAL_SD_ReadBlocks
 184              	.LVL9:
 185              		.loc 1 251 5 discriminator 1 view .LVU34
 186 0012 00B1     		cbz	r0, .L12
 252:Drivers/BSP/STM32746G-Discovery/stm32746g_discovery_sd.c ****   {
 253:Drivers/BSP/STM32746G-Discovery/stm32746g_discovery_sd.c ****     return MSD_ERROR;
 187              		.loc 1 253 12 view .LVU35
 188 0014 0120     		movs	r0, #1
 189              	.L12:
 254:Drivers/BSP/STM32746G-Discovery/stm32746g_discovery_sd.c ****   }
 255:Drivers/BSP/STM32746G-Discovery/stm32746g_discovery_sd.c ****   else
 256:Drivers/BSP/STM32746G-Discovery/stm32746g_discovery_sd.c ****   {
 257:Drivers/BSP/STM32746G-Discovery/stm32746g_discovery_sd.c ****     return MSD_OK;
 258:Drivers/BSP/STM32746G-Discovery/stm32746g_discovery_sd.c ****   }
 259:Drivers/BSP/STM32746G-Discovery/stm32746g_discovery_sd.c **** }
 190              		.loc 1 259 1 view .LVU36
 191 0016 03B0     		add	sp, sp, #12
 192              	.LCFI9:
 193              		.cfi_def_cfa_offset 4
 194              		@ sp needed
 195 0018 5DF804FB 		ldr	pc, [sp], #4
 196              	.L15:
 197              		.align	2
 198              	.L14:
 199 001c 00000000 		.word	uSdHandle
 200              		.cfi_endproc
ARM GAS  D:\cygwin64\tmp\ccfPYmj9.s 			page 9


 201              	.LFE145:
 203              		.section	.text.BSP_SD_WriteBlocks,"ax",%progbits
 204              		.align	1
 205              		.global	BSP_SD_WriteBlocks
 206              		.syntax unified
 207              		.thumb
 208              		.thumb_func
 210              	BSP_SD_WriteBlocks:
 211              	.LVL10:
 212              	.LFB146:
 260:Drivers/BSP/STM32746G-Discovery/stm32746g_discovery_sd.c **** 
 261:Drivers/BSP/STM32746G-Discovery/stm32746g_discovery_sd.c **** /**
 262:Drivers/BSP/STM32746G-Discovery/stm32746g_discovery_sd.c ****   * @brief  Writes block(s) to a specified address in an SD card, in polling mode. 
 263:Drivers/BSP/STM32746G-Discovery/stm32746g_discovery_sd.c ****   * @param  pData: Pointer to the buffer that will contain the data to transmit
 264:Drivers/BSP/STM32746G-Discovery/stm32746g_discovery_sd.c ****   * @param  WriteAddr: Address from where data is to be written
 265:Drivers/BSP/STM32746G-Discovery/stm32746g_discovery_sd.c ****   * @param  NumOfBlocks: Number of SD blocks to write
 266:Drivers/BSP/STM32746G-Discovery/stm32746g_discovery_sd.c ****   * @param  Timeout: Timeout for write operation
 267:Drivers/BSP/STM32746G-Discovery/stm32746g_discovery_sd.c ****   * @retval SD status
 268:Drivers/BSP/STM32746G-Discovery/stm32746g_discovery_sd.c ****   */
 269:Drivers/BSP/STM32746G-Discovery/stm32746g_discovery_sd.c **** uint8_t BSP_SD_WriteBlocks(uint32_t *pData, uint32_t WriteAddr, uint32_t NumOfBlocks, uint32_t Time
 270:Drivers/BSP/STM32746G-Discovery/stm32746g_discovery_sd.c **** {
 213              		.loc 1 270 1 is_stmt 1 view -0
 214              		.cfi_startproc
 215              		@ args = 0, pretend = 0, frame = 0
 216              		@ frame_needed = 0, uses_anonymous_args = 0
 217              		.loc 1 270 1 is_stmt 0 view .LVU38
 218 0000 00B5     		push	{lr}
 219              	.LCFI10:
 220              		.cfi_def_cfa_offset 4
 221              		.cfi_offset 14, -4
 222 0002 83B0     		sub	sp, sp, #12
 223              	.LCFI11:
 224              		.cfi_def_cfa_offset 16
 271:Drivers/BSP/STM32746G-Discovery/stm32746g_discovery_sd.c ****   if(HAL_SD_WriteBlocks(&uSdHandle, (uint8_t *)pData, WriteAddr, NumOfBlocks, Timeout) != HAL_OK)
 225              		.loc 1 271 3 is_stmt 1 view .LVU39
 226              		.loc 1 271 6 is_stmt 0 view .LVU40
 227 0004 0093     		str	r3, [sp]
 228 0006 1346     		mov	r3, r2
 229              	.LVL11:
 230              		.loc 1 271 6 view .LVU41
 231 0008 0A46     		mov	r2, r1
 232              	.LVL12:
 233              		.loc 1 271 6 view .LVU42
 234 000a 0146     		mov	r1, r0
 235              	.LVL13:
 236              		.loc 1 271 6 view .LVU43
 237 000c 0348     		ldr	r0, .L19
 238              	.LVL14:
 239              		.loc 1 271 6 view .LVU44
 240 000e FFF7FEFF 		bl	HAL_SD_WriteBlocks
 241              	.LVL15:
 242              		.loc 1 271 5 discriminator 1 view .LVU45
 243 0012 00B1     		cbz	r0, .L17
 272:Drivers/BSP/STM32746G-Discovery/stm32746g_discovery_sd.c ****   {
 273:Drivers/BSP/STM32746G-Discovery/stm32746g_discovery_sd.c ****     return MSD_ERROR;
 244              		.loc 1 273 12 view .LVU46
 245 0014 0120     		movs	r0, #1
ARM GAS  D:\cygwin64\tmp\ccfPYmj9.s 			page 10


 246              	.L17:
 274:Drivers/BSP/STM32746G-Discovery/stm32746g_discovery_sd.c ****   }
 275:Drivers/BSP/STM32746G-Discovery/stm32746g_discovery_sd.c ****   else
 276:Drivers/BSP/STM32746G-Discovery/stm32746g_discovery_sd.c ****   {
 277:Drivers/BSP/STM32746G-Discovery/stm32746g_discovery_sd.c ****     return MSD_OK;
 278:Drivers/BSP/STM32746G-Discovery/stm32746g_discovery_sd.c ****   }
 279:Drivers/BSP/STM32746G-Discovery/stm32746g_discovery_sd.c **** }
 247              		.loc 1 279 1 view .LVU47
 248 0016 03B0     		add	sp, sp, #12
 249              	.LCFI12:
 250              		.cfi_def_cfa_offset 4
 251              		@ sp needed
 252 0018 5DF804FB 		ldr	pc, [sp], #4
 253              	.L20:
 254              		.align	2
 255              	.L19:
 256 001c 00000000 		.word	uSdHandle
 257              		.cfi_endproc
 258              	.LFE146:
 260              		.section	.text.BSP_SD_ReadBlocks_DMA,"ax",%progbits
 261              		.align	1
 262              		.global	BSP_SD_ReadBlocks_DMA
 263              		.syntax unified
 264              		.thumb
 265              		.thumb_func
 267              	BSP_SD_ReadBlocks_DMA:
 268              	.LVL16:
 269              	.LFB147:
 280:Drivers/BSP/STM32746G-Discovery/stm32746g_discovery_sd.c **** 
 281:Drivers/BSP/STM32746G-Discovery/stm32746g_discovery_sd.c **** /**
 282:Drivers/BSP/STM32746G-Discovery/stm32746g_discovery_sd.c ****   * @brief  Reads block(s) from a specified address in an SD card, in DMA mode.
 283:Drivers/BSP/STM32746G-Discovery/stm32746g_discovery_sd.c ****   * @param  pData: Pointer to the buffer that will contain the data to transmit
 284:Drivers/BSP/STM32746G-Discovery/stm32746g_discovery_sd.c ****   * @param  ReadAddr: Address from where data is to be read
 285:Drivers/BSP/STM32746G-Discovery/stm32746g_discovery_sd.c ****   * @param  NumOfBlocks: Number of SD blocks to read 
 286:Drivers/BSP/STM32746G-Discovery/stm32746g_discovery_sd.c ****   * @retval SD status
 287:Drivers/BSP/STM32746G-Discovery/stm32746g_discovery_sd.c ****   */
 288:Drivers/BSP/STM32746G-Discovery/stm32746g_discovery_sd.c **** uint8_t BSP_SD_ReadBlocks_DMA(uint32_t *pData, uint32_t ReadAddr, uint32_t NumOfBlocks)
 289:Drivers/BSP/STM32746G-Discovery/stm32746g_discovery_sd.c **** {  
 270              		.loc 1 289 1 is_stmt 1 view -0
 271              		.cfi_startproc
 272              		@ args = 0, pretend = 0, frame = 0
 273              		@ frame_needed = 0, uses_anonymous_args = 0
 274              		.loc 1 289 1 is_stmt 0 view .LVU49
 275 0000 08B5     		push	{r3, lr}
 276              	.LCFI13:
 277              		.cfi_def_cfa_offset 8
 278              		.cfi_offset 3, -8
 279              		.cfi_offset 14, -4
 280 0002 1346     		mov	r3, r2
 290:Drivers/BSP/STM32746G-Discovery/stm32746g_discovery_sd.c ****   /* Read block(s) in DMA transfer mode */
 291:Drivers/BSP/STM32746G-Discovery/stm32746g_discovery_sd.c ****   if(HAL_SD_ReadBlocks_DMA(&uSdHandle, (uint8_t *)pData, ReadAddr, NumOfBlocks) != HAL_OK)
 281              		.loc 1 291 3 is_stmt 1 view .LVU50
 282              		.loc 1 291 6 is_stmt 0 view .LVU51
 283 0004 0A46     		mov	r2, r1
 284              	.LVL17:
 285              		.loc 1 291 6 view .LVU52
 286 0006 0146     		mov	r1, r0
ARM GAS  D:\cygwin64\tmp\ccfPYmj9.s 			page 11


 287              	.LVL18:
 288              		.loc 1 291 6 view .LVU53
 289 0008 0248     		ldr	r0, .L24
 290              	.LVL19:
 291              		.loc 1 291 6 view .LVU54
 292 000a FFF7FEFF 		bl	HAL_SD_ReadBlocks_DMA
 293              	.LVL20:
 294              		.loc 1 291 5 discriminator 1 view .LVU55
 295 000e 00B1     		cbz	r0, .L22
 292:Drivers/BSP/STM32746G-Discovery/stm32746g_discovery_sd.c ****   {
 293:Drivers/BSP/STM32746G-Discovery/stm32746g_discovery_sd.c ****     return MSD_ERROR;
 296              		.loc 1 293 12 view .LVU56
 297 0010 0120     		movs	r0, #1
 298              	.L22:
 294:Drivers/BSP/STM32746G-Discovery/stm32746g_discovery_sd.c ****   }
 295:Drivers/BSP/STM32746G-Discovery/stm32746g_discovery_sd.c ****   else
 296:Drivers/BSP/STM32746G-Discovery/stm32746g_discovery_sd.c ****   {
 297:Drivers/BSP/STM32746G-Discovery/stm32746g_discovery_sd.c ****     return MSD_OK;
 298:Drivers/BSP/STM32746G-Discovery/stm32746g_discovery_sd.c ****   }
 299:Drivers/BSP/STM32746G-Discovery/stm32746g_discovery_sd.c **** }
 299              		.loc 1 299 1 view .LVU57
 300 0012 08BD     		pop	{r3, pc}
 301              	.L25:
 302              		.align	2
 303              	.L24:
 304 0014 00000000 		.word	uSdHandle
 305              		.cfi_endproc
 306              	.LFE147:
 308              		.section	.text.BSP_SD_WriteBlocks_DMA,"ax",%progbits
 309              		.align	1
 310              		.global	BSP_SD_WriteBlocks_DMA
 311              		.syntax unified
 312              		.thumb
 313              		.thumb_func
 315              	BSP_SD_WriteBlocks_DMA:
 316              	.LVL21:
 317              	.LFB148:
 300:Drivers/BSP/STM32746G-Discovery/stm32746g_discovery_sd.c **** 
 301:Drivers/BSP/STM32746G-Discovery/stm32746g_discovery_sd.c **** /**
 302:Drivers/BSP/STM32746G-Discovery/stm32746g_discovery_sd.c ****   * @brief  Writes block(s) to a specified address in an SD card, in DMA mode.
 303:Drivers/BSP/STM32746G-Discovery/stm32746g_discovery_sd.c ****   * @param  pData: Pointer to the buffer that will contain the data to transmit
 304:Drivers/BSP/STM32746G-Discovery/stm32746g_discovery_sd.c ****   * @param  WriteAddr: Address from where data is to be written
 305:Drivers/BSP/STM32746G-Discovery/stm32746g_discovery_sd.c ****   * @param  NumOfBlocks: Number of SD blocks to write 
 306:Drivers/BSP/STM32746G-Discovery/stm32746g_discovery_sd.c ****   * @retval SD status
 307:Drivers/BSP/STM32746G-Discovery/stm32746g_discovery_sd.c ****   */
 308:Drivers/BSP/STM32746G-Discovery/stm32746g_discovery_sd.c **** uint8_t BSP_SD_WriteBlocks_DMA(uint32_t *pData, uint32_t WriteAddr, uint32_t NumOfBlocks)
 309:Drivers/BSP/STM32746G-Discovery/stm32746g_discovery_sd.c **** { 
 318              		.loc 1 309 1 is_stmt 1 view -0
 319              		.cfi_startproc
 320              		@ args = 0, pretend = 0, frame = 0
 321              		@ frame_needed = 0, uses_anonymous_args = 0
 322              		.loc 1 309 1 is_stmt 0 view .LVU59
 323 0000 08B5     		push	{r3, lr}
 324              	.LCFI14:
 325              		.cfi_def_cfa_offset 8
 326              		.cfi_offset 3, -8
 327              		.cfi_offset 14, -4
ARM GAS  D:\cygwin64\tmp\ccfPYmj9.s 			page 12


 328 0002 1346     		mov	r3, r2
 310:Drivers/BSP/STM32746G-Discovery/stm32746g_discovery_sd.c ****   /* Write block(s) in DMA transfer mode */
 311:Drivers/BSP/STM32746G-Discovery/stm32746g_discovery_sd.c ****   if(HAL_SD_WriteBlocks_DMA(&uSdHandle, (uint8_t *)pData, WriteAddr, NumOfBlocks) != HAL_OK)
 329              		.loc 1 311 3 is_stmt 1 view .LVU60
 330              		.loc 1 311 6 is_stmt 0 view .LVU61
 331 0004 0A46     		mov	r2, r1
 332              	.LVL22:
 333              		.loc 1 311 6 view .LVU62
 334 0006 0146     		mov	r1, r0
 335              	.LVL23:
 336              		.loc 1 311 6 view .LVU63
 337 0008 0248     		ldr	r0, .L29
 338              	.LVL24:
 339              		.loc 1 311 6 view .LVU64
 340 000a FFF7FEFF 		bl	HAL_SD_WriteBlocks_DMA
 341              	.LVL25:
 342              		.loc 1 311 5 discriminator 1 view .LVU65
 343 000e 00B1     		cbz	r0, .L27
 312:Drivers/BSP/STM32746G-Discovery/stm32746g_discovery_sd.c ****   {
 313:Drivers/BSP/STM32746G-Discovery/stm32746g_discovery_sd.c ****     return MSD_ERROR;
 344              		.loc 1 313 12 view .LVU66
 345 0010 0120     		movs	r0, #1
 346              	.L27:
 314:Drivers/BSP/STM32746G-Discovery/stm32746g_discovery_sd.c ****   }
 315:Drivers/BSP/STM32746G-Discovery/stm32746g_discovery_sd.c ****   else
 316:Drivers/BSP/STM32746G-Discovery/stm32746g_discovery_sd.c ****   {
 317:Drivers/BSP/STM32746G-Discovery/stm32746g_discovery_sd.c ****     return MSD_OK;
 318:Drivers/BSP/STM32746G-Discovery/stm32746g_discovery_sd.c ****   }
 319:Drivers/BSP/STM32746G-Discovery/stm32746g_discovery_sd.c **** }
 347              		.loc 1 319 1 view .LVU67
 348 0012 08BD     		pop	{r3, pc}
 349              	.L30:
 350              		.align	2
 351              	.L29:
 352 0014 00000000 		.word	uSdHandle
 353              		.cfi_endproc
 354              	.LFE148:
 356              		.section	.text.BSP_SD_Erase,"ax",%progbits
 357              		.align	1
 358              		.global	BSP_SD_Erase
 359              		.syntax unified
 360              		.thumb
 361              		.thumb_func
 363              	BSP_SD_Erase:
 364              	.LVL26:
 365              	.LFB149:
 320:Drivers/BSP/STM32746G-Discovery/stm32746g_discovery_sd.c **** 
 321:Drivers/BSP/STM32746G-Discovery/stm32746g_discovery_sd.c **** /**
 322:Drivers/BSP/STM32746G-Discovery/stm32746g_discovery_sd.c ****   * @brief  Erases the specified memory area of the given SD card. 
 323:Drivers/BSP/STM32746G-Discovery/stm32746g_discovery_sd.c ****   * @param  StartAddr: Start byte address
 324:Drivers/BSP/STM32746G-Discovery/stm32746g_discovery_sd.c ****   * @param  EndAddr: End byte address
 325:Drivers/BSP/STM32746G-Discovery/stm32746g_discovery_sd.c ****   * @retval SD status
 326:Drivers/BSP/STM32746G-Discovery/stm32746g_discovery_sd.c ****   */
 327:Drivers/BSP/STM32746G-Discovery/stm32746g_discovery_sd.c **** uint8_t BSP_SD_Erase(uint32_t StartAddr, uint32_t EndAddr)
 328:Drivers/BSP/STM32746G-Discovery/stm32746g_discovery_sd.c **** {
 366              		.loc 1 328 1 is_stmt 1 view -0
 367              		.cfi_startproc
ARM GAS  D:\cygwin64\tmp\ccfPYmj9.s 			page 13


 368              		@ args = 0, pretend = 0, frame = 0
 369              		@ frame_needed = 0, uses_anonymous_args = 0
 370              		.loc 1 328 1 is_stmt 0 view .LVU69
 371 0000 08B5     		push	{r3, lr}
 372              	.LCFI15:
 373              		.cfi_def_cfa_offset 8
 374              		.cfi_offset 3, -8
 375              		.cfi_offset 14, -4
 376 0002 0A46     		mov	r2, r1
 329:Drivers/BSP/STM32746G-Discovery/stm32746g_discovery_sd.c ****   if(HAL_SD_Erase(&uSdHandle, StartAddr, EndAddr) != HAL_OK)
 377              		.loc 1 329 3 is_stmt 1 view .LVU70
 378              		.loc 1 329 6 is_stmt 0 view .LVU71
 379 0004 0146     		mov	r1, r0
 380              	.LVL27:
 381              		.loc 1 329 6 view .LVU72
 382 0006 0348     		ldr	r0, .L34
 383              	.LVL28:
 384              		.loc 1 329 6 view .LVU73
 385 0008 FFF7FEFF 		bl	HAL_SD_Erase
 386              	.LVL29:
 387              		.loc 1 329 5 discriminator 1 view .LVU74
 388 000c 00B1     		cbz	r0, .L32
 330:Drivers/BSP/STM32746G-Discovery/stm32746g_discovery_sd.c ****   {
 331:Drivers/BSP/STM32746G-Discovery/stm32746g_discovery_sd.c ****     return MSD_ERROR;
 389              		.loc 1 331 12 view .LVU75
 390 000e 0120     		movs	r0, #1
 391              	.L32:
 332:Drivers/BSP/STM32746G-Discovery/stm32746g_discovery_sd.c ****   }
 333:Drivers/BSP/STM32746G-Discovery/stm32746g_discovery_sd.c ****   else
 334:Drivers/BSP/STM32746G-Discovery/stm32746g_discovery_sd.c ****   {
 335:Drivers/BSP/STM32746G-Discovery/stm32746g_discovery_sd.c ****     return MSD_OK;
 336:Drivers/BSP/STM32746G-Discovery/stm32746g_discovery_sd.c ****   }
 337:Drivers/BSP/STM32746G-Discovery/stm32746g_discovery_sd.c **** }
 392              		.loc 1 337 1 view .LVU76
 393 0010 08BD     		pop	{r3, pc}
 394              	.L35:
 395 0012 00BF     		.align	2
 396              	.L34:
 397 0014 00000000 		.word	uSdHandle
 398              		.cfi_endproc
 399              	.LFE149:
 401              		.section	.text.BSP_SD_MspInit,"ax",%progbits
 402              		.align	1
 403              		.weak	BSP_SD_MspInit
 404              		.syntax unified
 405              		.thumb
 406              		.thumb_func
 408              	BSP_SD_MspInit:
 409              	.LVL30:
 410              	.LFB150:
 338:Drivers/BSP/STM32746G-Discovery/stm32746g_discovery_sd.c **** 
 339:Drivers/BSP/STM32746G-Discovery/stm32746g_discovery_sd.c **** /**
 340:Drivers/BSP/STM32746G-Discovery/stm32746g_discovery_sd.c ****   * @brief  Initializes the SD MSP.
 341:Drivers/BSP/STM32746G-Discovery/stm32746g_discovery_sd.c ****   * @param  hsd: SD handle
 342:Drivers/BSP/STM32746G-Discovery/stm32746g_discovery_sd.c ****   * @param  Params
 343:Drivers/BSP/STM32746G-Discovery/stm32746g_discovery_sd.c ****   * @retval None
 344:Drivers/BSP/STM32746G-Discovery/stm32746g_discovery_sd.c ****   */
ARM GAS  D:\cygwin64\tmp\ccfPYmj9.s 			page 14


 345:Drivers/BSP/STM32746G-Discovery/stm32746g_discovery_sd.c **** __weak void BSP_SD_MspInit(SD_HandleTypeDef *hsd, void *Params)
 346:Drivers/BSP/STM32746G-Discovery/stm32746g_discovery_sd.c **** {
 411              		.loc 1 346 1 is_stmt 1 view -0
 412              		.cfi_startproc
 413              		@ args = 0, pretend = 0, frame = 40
 414              		@ frame_needed = 0, uses_anonymous_args = 0
 415              		.loc 1 346 1 is_stmt 0 view .LVU78
 416 0000 2DE9F04F 		push	{r4, r5, r6, r7, r8, r9, r10, fp, lr}
 417              	.LCFI16:
 418              		.cfi_def_cfa_offset 36
 419              		.cfi_offset 4, -36
 420              		.cfi_offset 5, -32
 421              		.cfi_offset 6, -28
 422              		.cfi_offset 7, -24
 423              		.cfi_offset 8, -20
 424              		.cfi_offset 9, -16
 425              		.cfi_offset 10, -12
 426              		.cfi_offset 11, -8
 427              		.cfi_offset 14, -4
 428 0004 8BB0     		sub	sp, sp, #44
 429              	.LCFI17:
 430              		.cfi_def_cfa_offset 80
 431 0006 0546     		mov	r5, r0
 347:Drivers/BSP/STM32746G-Discovery/stm32746g_discovery_sd.c ****   static DMA_HandleTypeDef dma_rx_handle;
 432              		.loc 1 347 3 is_stmt 1 view .LVU79
 348:Drivers/BSP/STM32746G-Discovery/stm32746g_discovery_sd.c ****   static DMA_HandleTypeDef dma_tx_handle;
 433              		.loc 1 348 3 view .LVU80
 349:Drivers/BSP/STM32746G-Discovery/stm32746g_discovery_sd.c ****   GPIO_InitTypeDef gpio_init_structure;
 434              		.loc 1 349 3 view .LVU81
 350:Drivers/BSP/STM32746G-Discovery/stm32746g_discovery_sd.c **** 
 351:Drivers/BSP/STM32746G-Discovery/stm32746g_discovery_sd.c ****   /* Enable SDIO clock */
 352:Drivers/BSP/STM32746G-Discovery/stm32746g_discovery_sd.c ****   __HAL_RCC_SDMMC1_CLK_ENABLE();
 435              		.loc 1 352 3 view .LVU82
 436              	.LBB2:
 437              		.loc 1 352 3 view .LVU83
 438              		.loc 1 352 3 view .LVU84
 439 0008 534B     		ldr	r3, .L38
 440 000a 5A6C     		ldr	r2, [r3, #68]
 441 000c 42F40062 		orr	r2, r2, #2048
 442 0010 5A64     		str	r2, [r3, #68]
 443              		.loc 1 352 3 view .LVU85
 444 0012 5A6C     		ldr	r2, [r3, #68]
 445 0014 02F40062 		and	r2, r2, #2048
 446 0018 0192     		str	r2, [sp, #4]
 447              		.loc 1 352 3 view .LVU86
 448 001a 019A     		ldr	r2, [sp, #4]
 449              	.LBE2:
 450              		.loc 1 352 3 view .LVU87
 353:Drivers/BSP/STM32746G-Discovery/stm32746g_discovery_sd.c ****   
 354:Drivers/BSP/STM32746G-Discovery/stm32746g_discovery_sd.c ****   /* Enable DMA2 clocks */
 355:Drivers/BSP/STM32746G-Discovery/stm32746g_discovery_sd.c ****   __DMAx_TxRx_CLK_ENABLE();
 451              		.loc 1 355 3 view .LVU88
 452              	.LBB3:
 453              		.loc 1 355 3 view .LVU89
 454              		.loc 1 355 3 view .LVU90
 455 001c 1A6B     		ldr	r2, [r3, #48]
 456 001e 42F48002 		orr	r2, r2, #4194304
ARM GAS  D:\cygwin64\tmp\ccfPYmj9.s 			page 15


 457 0022 1A63     		str	r2, [r3, #48]
 458              		.loc 1 355 3 view .LVU91
 459 0024 1A6B     		ldr	r2, [r3, #48]
 460 0026 02F48002 		and	r2, r2, #4194304
 461 002a 0292     		str	r2, [sp, #8]
 462              		.loc 1 355 3 view .LVU92
 463 002c 029A     		ldr	r2, [sp, #8]
 464              	.LBE3:
 465              		.loc 1 355 3 view .LVU93
 356:Drivers/BSP/STM32746G-Discovery/stm32746g_discovery_sd.c **** 
 357:Drivers/BSP/STM32746G-Discovery/stm32746g_discovery_sd.c ****   /* Enable GPIOs clock */
 358:Drivers/BSP/STM32746G-Discovery/stm32746g_discovery_sd.c ****   __HAL_RCC_GPIOC_CLK_ENABLE();
 466              		.loc 1 358 3 view .LVU94
 467              	.LBB4:
 468              		.loc 1 358 3 view .LVU95
 469              		.loc 1 358 3 view .LVU96
 470 002e 1A6B     		ldr	r2, [r3, #48]
 471 0030 42F00402 		orr	r2, r2, #4
 472 0034 1A63     		str	r2, [r3, #48]
 473              		.loc 1 358 3 view .LVU97
 474 0036 1A6B     		ldr	r2, [r3, #48]
 475 0038 02F00402 		and	r2, r2, #4
 476 003c 0392     		str	r2, [sp, #12]
 477              		.loc 1 358 3 view .LVU98
 478 003e 039A     		ldr	r2, [sp, #12]
 479              	.LBE4:
 480              		.loc 1 358 3 view .LVU99
 359:Drivers/BSP/STM32746G-Discovery/stm32746g_discovery_sd.c ****   __HAL_RCC_GPIOD_CLK_ENABLE();
 481              		.loc 1 359 3 view .LVU100
 482              	.LBB5:
 483              		.loc 1 359 3 view .LVU101
 484              		.loc 1 359 3 view .LVU102
 485 0040 1A6B     		ldr	r2, [r3, #48]
 486 0042 42F00802 		orr	r2, r2, #8
 487 0046 1A63     		str	r2, [r3, #48]
 488              		.loc 1 359 3 view .LVU103
 489 0048 1B6B     		ldr	r3, [r3, #48]
 490 004a 03F00803 		and	r3, r3, #8
 491 004e 0493     		str	r3, [sp, #16]
 492              		.loc 1 359 3 view .LVU104
 493 0050 049B     		ldr	r3, [sp, #16]
 494              	.LBE5:
 495              		.loc 1 359 3 view .LVU105
 360:Drivers/BSP/STM32746G-Discovery/stm32746g_discovery_sd.c ****   
 361:Drivers/BSP/STM32746G-Discovery/stm32746g_discovery_sd.c ****   /* Common GPIO configuration */
 362:Drivers/BSP/STM32746G-Discovery/stm32746g_discovery_sd.c ****   gpio_init_structure.Mode      = GPIO_MODE_AF_PP;
 496              		.loc 1 362 3 view .LVU106
 497              		.loc 1 362 33 is_stmt 0 view .LVU107
 498 0052 0223     		movs	r3, #2
 499 0054 0693     		str	r3, [sp, #24]
 363:Drivers/BSP/STM32746G-Discovery/stm32746g_discovery_sd.c ****   gpio_init_structure.Pull      = GPIO_PULLUP;
 500              		.loc 1 363 3 is_stmt 1 view .LVU108
 501              		.loc 1 363 33 is_stmt 0 view .LVU109
 502 0056 0123     		movs	r3, #1
 503 0058 0793     		str	r3, [sp, #28]
 364:Drivers/BSP/STM32746G-Discovery/stm32746g_discovery_sd.c ****   gpio_init_structure.Speed     = GPIO_SPEED_HIGH;
 504              		.loc 1 364 3 is_stmt 1 view .LVU110
ARM GAS  D:\cygwin64\tmp\ccfPYmj9.s 			page 16


 505              		.loc 1 364 33 is_stmt 0 view .LVU111
 506 005a 0327     		movs	r7, #3
 507 005c 0897     		str	r7, [sp, #32]
 365:Drivers/BSP/STM32746G-Discovery/stm32746g_discovery_sd.c ****   gpio_init_structure.Alternate = GPIO_AF12_SDMMC1;
 508              		.loc 1 365 3 is_stmt 1 view .LVU112
 509              		.loc 1 365 33 is_stmt 0 view .LVU113
 510 005e 0C23     		movs	r3, #12
 511 0060 0993     		str	r3, [sp, #36]
 366:Drivers/BSP/STM32746G-Discovery/stm32746g_discovery_sd.c ****   
 367:Drivers/BSP/STM32746G-Discovery/stm32746g_discovery_sd.c ****   /* GPIOC configuration */
 368:Drivers/BSP/STM32746G-Discovery/stm32746g_discovery_sd.c ****   gpio_init_structure.Pin = GPIO_PIN_8 | GPIO_PIN_9 | GPIO_PIN_10 | GPIO_PIN_11 | GPIO_PIN_12;
 512              		.loc 1 368 3 is_stmt 1 view .LVU114
 513              		.loc 1 368 27 is_stmt 0 view .LVU115
 514 0062 4FF4F853 		mov	r3, #7936
 515 0066 0593     		str	r3, [sp, #20]
 369:Drivers/BSP/STM32746G-Discovery/stm32746g_discovery_sd.c ****   HAL_GPIO_Init(GPIOC, &gpio_init_structure);
 516              		.loc 1 369 3 is_stmt 1 view .LVU116
 517 0068 05A9     		add	r1, sp, #20
 518              	.LVL31:
 519              		.loc 1 369 3 is_stmt 0 view .LVU117
 520 006a 3C48     		ldr	r0, .L38+4
 521              	.LVL32:
 522              		.loc 1 369 3 view .LVU118
 523 006c FFF7FEFF 		bl	HAL_GPIO_Init
 524              	.LVL33:
 370:Drivers/BSP/STM32746G-Discovery/stm32746g_discovery_sd.c **** 
 371:Drivers/BSP/STM32746G-Discovery/stm32746g_discovery_sd.c ****   /* GPIOD configuration */
 372:Drivers/BSP/STM32746G-Discovery/stm32746g_discovery_sd.c ****   gpio_init_structure.Pin = GPIO_PIN_2;
 525              		.loc 1 372 3 is_stmt 1 view .LVU119
 526              		.loc 1 372 27 is_stmt 0 view .LVU120
 527 0070 4FF00408 		mov	r8, #4
 528 0074 CDF81480 		str	r8, [sp, #20]
 373:Drivers/BSP/STM32746G-Discovery/stm32746g_discovery_sd.c ****   HAL_GPIO_Init(GPIOD, &gpio_init_structure);
 529              		.loc 1 373 3 is_stmt 1 view .LVU121
 530 0078 05A9     		add	r1, sp, #20
 531 007a 3948     		ldr	r0, .L38+8
 532 007c FFF7FEFF 		bl	HAL_GPIO_Init
 533              	.LVL34:
 374:Drivers/BSP/STM32746G-Discovery/stm32746g_discovery_sd.c **** 
 375:Drivers/BSP/STM32746G-Discovery/stm32746g_discovery_sd.c ****   /* NVIC configuration for SDIO interrupts */
 376:Drivers/BSP/STM32746G-Discovery/stm32746g_discovery_sd.c ****   HAL_NVIC_SetPriority(SDMMC1_IRQn, 0x0E, 0);
 534              		.loc 1 376 3 view .LVU122
 535 0080 0022     		movs	r2, #0
 536 0082 0E21     		movs	r1, #14
 537 0084 3120     		movs	r0, #49
 538 0086 FFF7FEFF 		bl	HAL_NVIC_SetPriority
 539              	.LVL35:
 377:Drivers/BSP/STM32746G-Discovery/stm32746g_discovery_sd.c ****   HAL_NVIC_EnableIRQ(SDMMC1_IRQn);
 540              		.loc 1 377 3 view .LVU123
 541 008a 3120     		movs	r0, #49
 542 008c FFF7FEFF 		bl	HAL_NVIC_EnableIRQ
 543              	.LVL36:
 378:Drivers/BSP/STM32746G-Discovery/stm32746g_discovery_sd.c ****     
 379:Drivers/BSP/STM32746G-Discovery/stm32746g_discovery_sd.c ****   /* Configure DMA Rx parameters */
 380:Drivers/BSP/STM32746G-Discovery/stm32746g_discovery_sd.c ****   dma_rx_handle.Init.Channel             = SD_DMAx_Rx_CHANNEL;
 544              		.loc 1 380 3 view .LVU124
 545              		.loc 1 380 42 is_stmt 0 view .LVU125
ARM GAS  D:\cygwin64\tmp\ccfPYmj9.s 			page 17


 546 0090 344C     		ldr	r4, .L38+12
 547 0092 4FF0006B 		mov	fp, #134217728
 548 0096 C4F804B0 		str	fp, [r4, #4]
 381:Drivers/BSP/STM32746G-Discovery/stm32746g_discovery_sd.c ****   dma_rx_handle.Init.Direction           = DMA_PERIPH_TO_MEMORY;
 549              		.loc 1 381 3 is_stmt 1 view .LVU126
 550              		.loc 1 381 42 is_stmt 0 view .LVU127
 551 009a 0026     		movs	r6, #0
 552 009c A660     		str	r6, [r4, #8]
 382:Drivers/BSP/STM32746G-Discovery/stm32746g_discovery_sd.c ****   dma_rx_handle.Init.PeriphInc           = DMA_PINC_DISABLE;
 553              		.loc 1 382 3 is_stmt 1 view .LVU128
 554              		.loc 1 382 42 is_stmt 0 view .LVU129
 555 009e E660     		str	r6, [r4, #12]
 383:Drivers/BSP/STM32746G-Discovery/stm32746g_discovery_sd.c ****   dma_rx_handle.Init.MemInc              = DMA_MINC_ENABLE;
 556              		.loc 1 383 3 is_stmt 1 view .LVU130
 557              		.loc 1 383 42 is_stmt 0 view .LVU131
 558 00a0 4FF4806A 		mov	r10, #1024
 559 00a4 C4F810A0 		str	r10, [r4, #16]
 384:Drivers/BSP/STM32746G-Discovery/stm32746g_discovery_sd.c ****   dma_rx_handle.Init.PeriphDataAlignment = DMA_PDATAALIGN_WORD;
 560              		.loc 1 384 3 is_stmt 1 view .LVU132
 561              		.loc 1 384 42 is_stmt 0 view .LVU133
 562 00a8 4FF48059 		mov	r9, #4096
 563 00ac C4F81490 		str	r9, [r4, #20]
 385:Drivers/BSP/STM32746G-Discovery/stm32746g_discovery_sd.c ****   dma_rx_handle.Init.MemDataAlignment    = DMA_MDATAALIGN_WORD;
 564              		.loc 1 385 3 is_stmt 1 view .LVU134
 565              		.loc 1 385 42 is_stmt 0 view .LVU135
 566 00b0 4FF48043 		mov	r3, #16384
 567 00b4 A361     		str	r3, [r4, #24]
 386:Drivers/BSP/STM32746G-Discovery/stm32746g_discovery_sd.c ****   dma_rx_handle.Init.Mode                = DMA_PFCTRL;
 568              		.loc 1 386 3 is_stmt 1 view .LVU136
 569              		.loc 1 386 42 is_stmt 0 view .LVU137
 570 00b6 2023     		movs	r3, #32
 571 00b8 E361     		str	r3, [r4, #28]
 387:Drivers/BSP/STM32746G-Discovery/stm32746g_discovery_sd.c ****   dma_rx_handle.Init.Priority            = DMA_PRIORITY_VERY_HIGH;
 572              		.loc 1 387 3 is_stmt 1 view .LVU138
 573              		.loc 1 387 42 is_stmt 0 view .LVU139
 574 00ba 4FF44033 		mov	r3, #196608
 575 00be 2362     		str	r3, [r4, #32]
 388:Drivers/BSP/STM32746G-Discovery/stm32746g_discovery_sd.c ****   dma_rx_handle.Init.FIFOMode            = DMA_FIFOMODE_ENABLE;
 576              		.loc 1 388 3 is_stmt 1 view .LVU140
 577              		.loc 1 388 42 is_stmt 0 view .LVU141
 578 00c0 C4F82480 		str	r8, [r4, #36]
 389:Drivers/BSP/STM32746G-Discovery/stm32746g_discovery_sd.c ****   dma_rx_handle.Init.FIFOThreshold       = DMA_FIFO_THRESHOLD_FULL;
 579              		.loc 1 389 3 is_stmt 1 view .LVU142
 580              		.loc 1 389 42 is_stmt 0 view .LVU143
 581 00c4 A762     		str	r7, [r4, #40]
 390:Drivers/BSP/STM32746G-Discovery/stm32746g_discovery_sd.c ****   dma_rx_handle.Init.MemBurst            = DMA_MBURST_INC4;
 582              		.loc 1 390 3 is_stmt 1 view .LVU144
 583              		.loc 1 390 42 is_stmt 0 view .LVU145
 584 00c6 4FF40003 		mov	r3, #8388608
 585 00ca E362     		str	r3, [r4, #44]
 391:Drivers/BSP/STM32746G-Discovery/stm32746g_discovery_sd.c ****   dma_rx_handle.Init.PeriphBurst         = DMA_PBURST_INC4;
 586              		.loc 1 391 3 is_stmt 1 view .LVU146
 587              		.loc 1 391 42 is_stmt 0 view .LVU147
 588 00cc 4FF40013 		mov	r3, #2097152
 589 00d0 2363     		str	r3, [r4, #48]
 392:Drivers/BSP/STM32746G-Discovery/stm32746g_discovery_sd.c ****   
 393:Drivers/BSP/STM32746G-Discovery/stm32746g_discovery_sd.c ****   dma_rx_handle.Instance = SD_DMAx_Rx_STREAM;
ARM GAS  D:\cygwin64\tmp\ccfPYmj9.s 			page 18


 590              		.loc 1 393 3 is_stmt 1 view .LVU148
 591              		.loc 1 393 26 is_stmt 0 view .LVU149
 592 00d2 254B     		ldr	r3, .L38+16
 593 00d4 2360     		str	r3, [r4]
 394:Drivers/BSP/STM32746G-Discovery/stm32746g_discovery_sd.c ****   
 395:Drivers/BSP/STM32746G-Discovery/stm32746g_discovery_sd.c ****   /* Associate the DMA handle */
 396:Drivers/BSP/STM32746G-Discovery/stm32746g_discovery_sd.c ****   __HAL_LINKDMA(hsd, hdmarx, dma_rx_handle);
 594              		.loc 1 396 3 is_stmt 1 view .LVU150
 595              		.loc 1 396 3 view .LVU151
 596 00d6 2C64     		str	r4, [r5, #64]
 597              		.loc 1 396 3 view .LVU152
 598 00d8 A563     		str	r5, [r4, #56]
 599              		.loc 1 396 3 view .LVU153
 397:Drivers/BSP/STM32746G-Discovery/stm32746g_discovery_sd.c ****   
 398:Drivers/BSP/STM32746G-Discovery/stm32746g_discovery_sd.c ****   /* Deinitialize the stream for new transfer */
 399:Drivers/BSP/STM32746G-Discovery/stm32746g_discovery_sd.c ****   HAL_DMA_DeInit(&dma_rx_handle);
 600              		.loc 1 399 3 view .LVU154
 601 00da 2046     		mov	r0, r4
 602 00dc FFF7FEFF 		bl	HAL_DMA_DeInit
 603              	.LVL37:
 400:Drivers/BSP/STM32746G-Discovery/stm32746g_discovery_sd.c ****   
 401:Drivers/BSP/STM32746G-Discovery/stm32746g_discovery_sd.c ****   /* Configure the DMA stream */
 402:Drivers/BSP/STM32746G-Discovery/stm32746g_discovery_sd.c ****   HAL_DMA_Init(&dma_rx_handle);
 604              		.loc 1 402 3 view .LVU155
 605 00e0 2046     		mov	r0, r4
 606 00e2 FFF7FEFF 		bl	HAL_DMA_Init
 607              	.LVL38:
 403:Drivers/BSP/STM32746G-Discovery/stm32746g_discovery_sd.c ****   
 404:Drivers/BSP/STM32746G-Discovery/stm32746g_discovery_sd.c ****   /* Configure DMA Tx parameters */
 405:Drivers/BSP/STM32746G-Discovery/stm32746g_discovery_sd.c ****   dma_tx_handle.Init.Channel             = SD_DMAx_Tx_CHANNEL;
 608              		.loc 1 405 3 view .LVU156
 609              		.loc 1 405 42 is_stmt 0 view .LVU157
 610 00e6 214C     		ldr	r4, .L38+20
 611 00e8 C4F804B0 		str	fp, [r4, #4]
 406:Drivers/BSP/STM32746G-Discovery/stm32746g_discovery_sd.c ****   dma_tx_handle.Init.Direction           = DMA_MEMORY_TO_PERIPH;
 612              		.loc 1 406 3 is_stmt 1 view .LVU158
 613              		.loc 1 406 42 is_stmt 0 view .LVU159
 614 00ec 4023     		movs	r3, #64
 615 00ee A360     		str	r3, [r4, #8]
 407:Drivers/BSP/STM32746G-Discovery/stm32746g_discovery_sd.c ****   dma_tx_handle.Init.PeriphInc           = DMA_PINC_DISABLE;
 616              		.loc 1 407 3 is_stmt 1 view .LVU160
 617              		.loc 1 407 42 is_stmt 0 view .LVU161
 618 00f0 E660     		str	r6, [r4, #12]
 408:Drivers/BSP/STM32746G-Discovery/stm32746g_discovery_sd.c ****   dma_tx_handle.Init.MemInc              = DMA_MINC_ENABLE;
 619              		.loc 1 408 3 is_stmt 1 view .LVU162
 620              		.loc 1 408 42 is_stmt 0 view .LVU163
 621 00f2 C4F810A0 		str	r10, [r4, #16]
 409:Drivers/BSP/STM32746G-Discovery/stm32746g_discovery_sd.c ****   dma_tx_handle.Init.PeriphDataAlignment = DMA_PDATAALIGN_WORD;
 622              		.loc 1 409 3 is_stmt 1 view .LVU164
 623              		.loc 1 409 42 is_stmt 0 view .LVU165
 624 00f6 C4F81490 		str	r9, [r4, #20]
 410:Drivers/BSP/STM32746G-Discovery/stm32746g_discovery_sd.c ****   dma_tx_handle.Init.MemDataAlignment    = DMA_MDATAALIGN_WORD;
 625              		.loc 1 410 3 is_stmt 1 view .LVU166
 626              		.loc 1 410 42 is_stmt 0 view .LVU167
 627 00fa 4FF48043 		mov	r3, #16384
 628 00fe A361     		str	r3, [r4, #24]
 411:Drivers/BSP/STM32746G-Discovery/stm32746g_discovery_sd.c ****   dma_tx_handle.Init.Mode                = DMA_PFCTRL;
ARM GAS  D:\cygwin64\tmp\ccfPYmj9.s 			page 19


 629              		.loc 1 411 3 is_stmt 1 view .LVU168
 630              		.loc 1 411 42 is_stmt 0 view .LVU169
 631 0100 2023     		movs	r3, #32
 632 0102 E361     		str	r3, [r4, #28]
 412:Drivers/BSP/STM32746G-Discovery/stm32746g_discovery_sd.c ****   dma_tx_handle.Init.Priority            = DMA_PRIORITY_VERY_HIGH;
 633              		.loc 1 412 3 is_stmt 1 view .LVU170
 634              		.loc 1 412 42 is_stmt 0 view .LVU171
 635 0104 4FF44033 		mov	r3, #196608
 636 0108 2362     		str	r3, [r4, #32]
 413:Drivers/BSP/STM32746G-Discovery/stm32746g_discovery_sd.c ****   dma_tx_handle.Init.FIFOMode            = DMA_FIFOMODE_ENABLE;
 637              		.loc 1 413 3 is_stmt 1 view .LVU172
 638              		.loc 1 413 42 is_stmt 0 view .LVU173
 639 010a C4F82480 		str	r8, [r4, #36]
 414:Drivers/BSP/STM32746G-Discovery/stm32746g_discovery_sd.c ****   dma_tx_handle.Init.FIFOThreshold       = DMA_FIFO_THRESHOLD_FULL;
 640              		.loc 1 414 3 is_stmt 1 view .LVU174
 641              		.loc 1 414 42 is_stmt 0 view .LVU175
 642 010e A762     		str	r7, [r4, #40]
 415:Drivers/BSP/STM32746G-Discovery/stm32746g_discovery_sd.c ****   dma_tx_handle.Init.MemBurst            = DMA_MBURST_INC4;
 643              		.loc 1 415 3 is_stmt 1 view .LVU176
 644              		.loc 1 415 42 is_stmt 0 view .LVU177
 645 0110 4FF40003 		mov	r3, #8388608
 646 0114 E362     		str	r3, [r4, #44]
 416:Drivers/BSP/STM32746G-Discovery/stm32746g_discovery_sd.c ****   dma_tx_handle.Init.PeriphBurst         = DMA_PBURST_INC4;
 647              		.loc 1 416 3 is_stmt 1 view .LVU178
 648              		.loc 1 416 42 is_stmt 0 view .LVU179
 649 0116 4FF40013 		mov	r3, #2097152
 650 011a 2363     		str	r3, [r4, #48]
 417:Drivers/BSP/STM32746G-Discovery/stm32746g_discovery_sd.c ****   
 418:Drivers/BSP/STM32746G-Discovery/stm32746g_discovery_sd.c ****   dma_tx_handle.Instance = SD_DMAx_Tx_STREAM;
 651              		.loc 1 418 3 is_stmt 1 view .LVU180
 652              		.loc 1 418 26 is_stmt 0 view .LVU181
 653 011c 144B     		ldr	r3, .L38+24
 654 011e 2360     		str	r3, [r4]
 419:Drivers/BSP/STM32746G-Discovery/stm32746g_discovery_sd.c ****   
 420:Drivers/BSP/STM32746G-Discovery/stm32746g_discovery_sd.c ****   /* Associate the DMA handle */
 421:Drivers/BSP/STM32746G-Discovery/stm32746g_discovery_sd.c ****   __HAL_LINKDMA(hsd, hdmatx, dma_tx_handle);
 655              		.loc 1 421 3 is_stmt 1 view .LVU182
 656              		.loc 1 421 3 view .LVU183
 657 0120 EC63     		str	r4, [r5, #60]
 658              		.loc 1 421 3 view .LVU184
 659 0122 A563     		str	r5, [r4, #56]
 660              		.loc 1 421 3 view .LVU185
 422:Drivers/BSP/STM32746G-Discovery/stm32746g_discovery_sd.c ****   
 423:Drivers/BSP/STM32746G-Discovery/stm32746g_discovery_sd.c ****   /* Deinitialize the stream for new transfer */
 424:Drivers/BSP/STM32746G-Discovery/stm32746g_discovery_sd.c ****   HAL_DMA_DeInit(&dma_tx_handle);
 661              		.loc 1 424 3 view .LVU186
 662 0124 2046     		mov	r0, r4
 663 0126 FFF7FEFF 		bl	HAL_DMA_DeInit
 664              	.LVL39:
 425:Drivers/BSP/STM32746G-Discovery/stm32746g_discovery_sd.c ****   
 426:Drivers/BSP/STM32746G-Discovery/stm32746g_discovery_sd.c ****   /* Configure the DMA stream */
 427:Drivers/BSP/STM32746G-Discovery/stm32746g_discovery_sd.c ****   HAL_DMA_Init(&dma_tx_handle); 
 665              		.loc 1 427 3 view .LVU187
 666 012a 2046     		mov	r0, r4
 667 012c FFF7FEFF 		bl	HAL_DMA_Init
 668              	.LVL40:
 428:Drivers/BSP/STM32746G-Discovery/stm32746g_discovery_sd.c ****   
ARM GAS  D:\cygwin64\tmp\ccfPYmj9.s 			page 20


 429:Drivers/BSP/STM32746G-Discovery/stm32746g_discovery_sd.c ****   /* NVIC configuration for DMA transfer complete interrupt */
 430:Drivers/BSP/STM32746G-Discovery/stm32746g_discovery_sd.c ****   HAL_NVIC_SetPriority(SD_DMAx_Rx_IRQn, 0x0F, 0);
 669              		.loc 1 430 3 view .LVU188
 670 0130 3246     		mov	r2, r6
 671 0132 0F21     		movs	r1, #15
 672 0134 3B20     		movs	r0, #59
 673 0136 FFF7FEFF 		bl	HAL_NVIC_SetPriority
 674              	.LVL41:
 431:Drivers/BSP/STM32746G-Discovery/stm32746g_discovery_sd.c ****   HAL_NVIC_EnableIRQ(SD_DMAx_Rx_IRQn);
 675              		.loc 1 431 3 view .LVU189
 676 013a 3B20     		movs	r0, #59
 677 013c FFF7FEFF 		bl	HAL_NVIC_EnableIRQ
 678              	.LVL42:
 432:Drivers/BSP/STM32746G-Discovery/stm32746g_discovery_sd.c ****   
 433:Drivers/BSP/STM32746G-Discovery/stm32746g_discovery_sd.c ****   /* NVIC configuration for DMA transfer complete interrupt */
 434:Drivers/BSP/STM32746G-Discovery/stm32746g_discovery_sd.c ****   HAL_NVIC_SetPriority(SD_DMAx_Tx_IRQn, 0x0F, 0);
 679              		.loc 1 434 3 view .LVU190
 680 0140 3246     		mov	r2, r6
 681 0142 0F21     		movs	r1, #15
 682 0144 4520     		movs	r0, #69
 683 0146 FFF7FEFF 		bl	HAL_NVIC_SetPriority
 684              	.LVL43:
 435:Drivers/BSP/STM32746G-Discovery/stm32746g_discovery_sd.c ****   HAL_NVIC_EnableIRQ(SD_DMAx_Tx_IRQn);
 685              		.loc 1 435 3 view .LVU191
 686 014a 4520     		movs	r0, #69
 687 014c FFF7FEFF 		bl	HAL_NVIC_EnableIRQ
 688              	.LVL44:
 436:Drivers/BSP/STM32746G-Discovery/stm32746g_discovery_sd.c **** }
 689              		.loc 1 436 1 is_stmt 0 view .LVU192
 690 0150 0BB0     		add	sp, sp, #44
 691              	.LCFI18:
 692              		.cfi_def_cfa_offset 36
 693              		@ sp needed
 694 0152 BDE8F08F 		pop	{r4, r5, r6, r7, r8, r9, r10, fp, pc}
 695              	.LVL45:
 696              	.L39:
 697              		.loc 1 436 1 view .LVU193
 698 0156 00BF     		.align	2
 699              	.L38:
 700 0158 00380240 		.word	1073887232
 701 015c 00080240 		.word	1073874944
 702 0160 000C0240 		.word	1073875968
 703 0164 00000000 		.word	dma_rx_handle.3
 704 0168 58640240 		.word	1073898584
 705 016c 00000000 		.word	dma_tx_handle.2
 706 0170 A0640240 		.word	1073898656
 707              		.cfi_endproc
 708              	.LFE150:
 710              		.section	.text.BSP_SD_Detect_MspInit,"ax",%progbits
 711              		.align	1
 712              		.weak	BSP_SD_Detect_MspInit
 713              		.syntax unified
 714              		.thumb
 715              		.thumb_func
 717              	BSP_SD_Detect_MspInit:
 718              	.LVL46:
 719              	.LFB151:
ARM GAS  D:\cygwin64\tmp\ccfPYmj9.s 			page 21


 437:Drivers/BSP/STM32746G-Discovery/stm32746g_discovery_sd.c **** 
 438:Drivers/BSP/STM32746G-Discovery/stm32746g_discovery_sd.c **** /**
 439:Drivers/BSP/STM32746G-Discovery/stm32746g_discovery_sd.c ****   * @brief  Initializes the SD Detect pin MSP.
 440:Drivers/BSP/STM32746G-Discovery/stm32746g_discovery_sd.c ****   * @param  hsd: SD handle
 441:Drivers/BSP/STM32746G-Discovery/stm32746g_discovery_sd.c ****   * @param  Params
 442:Drivers/BSP/STM32746G-Discovery/stm32746g_discovery_sd.c ****   * @retval None
 443:Drivers/BSP/STM32746G-Discovery/stm32746g_discovery_sd.c ****   */
 444:Drivers/BSP/STM32746G-Discovery/stm32746g_discovery_sd.c **** __weak void BSP_SD_Detect_MspInit(SD_HandleTypeDef *hsd, void *Params)
 445:Drivers/BSP/STM32746G-Discovery/stm32746g_discovery_sd.c **** {
 720              		.loc 1 445 1 is_stmt 1 view -0
 721              		.cfi_startproc
 722              		@ args = 0, pretend = 0, frame = 24
 723              		@ frame_needed = 0, uses_anonymous_args = 0
 724              		.loc 1 445 1 is_stmt 0 view .LVU195
 725 0000 00B5     		push	{lr}
 726              	.LCFI19:
 727              		.cfi_def_cfa_offset 4
 728              		.cfi_offset 14, -4
 729 0002 87B0     		sub	sp, sp, #28
 730              	.LCFI20:
 731              		.cfi_def_cfa_offset 32
 446:Drivers/BSP/STM32746G-Discovery/stm32746g_discovery_sd.c ****   GPIO_InitTypeDef  gpio_init_structure;
 732              		.loc 1 446 3 is_stmt 1 view .LVU196
 447:Drivers/BSP/STM32746G-Discovery/stm32746g_discovery_sd.c **** 
 448:Drivers/BSP/STM32746G-Discovery/stm32746g_discovery_sd.c ****   SD_DETECT_GPIO_CLK_ENABLE();
 733              		.loc 1 448 3 view .LVU197
 734              	.LBB6:
 735              		.loc 1 448 3 view .LVU198
 736              		.loc 1 448 3 view .LVU199
 737 0004 0C4B     		ldr	r3, .L42
 738 0006 1A6B     		ldr	r2, [r3, #48]
 739 0008 42F00402 		orr	r2, r2, #4
 740 000c 1A63     		str	r2, [r3, #48]
 741              		.loc 1 448 3 view .LVU200
 742 000e 1B6B     		ldr	r3, [r3, #48]
 743 0010 03F00403 		and	r3, r3, #4
 744 0014 0093     		str	r3, [sp]
 745              		.loc 1 448 3 view .LVU201
 746 0016 009B     		ldr	r3, [sp]
 747              	.LBE6:
 748              		.loc 1 448 3 view .LVU202
 449:Drivers/BSP/STM32746G-Discovery/stm32746g_discovery_sd.c **** 
 450:Drivers/BSP/STM32746G-Discovery/stm32746g_discovery_sd.c ****   /* GPIO configuration in input for uSD_Detect signal */
 451:Drivers/BSP/STM32746G-Discovery/stm32746g_discovery_sd.c ****   gpio_init_structure.Pin       = SD_DETECT_PIN;
 749              		.loc 1 451 3 view .LVU203
 750              		.loc 1 451 33 is_stmt 0 view .LVU204
 751 0018 4FF40053 		mov	r3, #8192
 752 001c 0193     		str	r3, [sp, #4]
 452:Drivers/BSP/STM32746G-Discovery/stm32746g_discovery_sd.c ****   gpio_init_structure.Mode      = GPIO_MODE_INPUT;
 753              		.loc 1 452 3 is_stmt 1 view .LVU205
 754              		.loc 1 452 33 is_stmt 0 view .LVU206
 755 001e 0023     		movs	r3, #0
 756 0020 0293     		str	r3, [sp, #8]
 453:Drivers/BSP/STM32746G-Discovery/stm32746g_discovery_sd.c ****   gpio_init_structure.Pull      = GPIO_PULLUP;
 757              		.loc 1 453 3 is_stmt 1 view .LVU207
 758              		.loc 1 453 33 is_stmt 0 view .LVU208
 759 0022 0123     		movs	r3, #1
ARM GAS  D:\cygwin64\tmp\ccfPYmj9.s 			page 22


 760 0024 0393     		str	r3, [sp, #12]
 454:Drivers/BSP/STM32746G-Discovery/stm32746g_discovery_sd.c ****   gpio_init_structure.Speed     = GPIO_SPEED_HIGH;
 761              		.loc 1 454 3 is_stmt 1 view .LVU209
 762              		.loc 1 454 33 is_stmt 0 view .LVU210
 763 0026 0323     		movs	r3, #3
 764 0028 0493     		str	r3, [sp, #16]
 455:Drivers/BSP/STM32746G-Discovery/stm32746g_discovery_sd.c ****   HAL_GPIO_Init(SD_DETECT_GPIO_PORT, &gpio_init_structure);
 765              		.loc 1 455 3 is_stmt 1 view .LVU211
 766 002a 01A9     		add	r1, sp, #4
 767              	.LVL47:
 768              		.loc 1 455 3 is_stmt 0 view .LVU212
 769 002c 0348     		ldr	r0, .L42+4
 770              	.LVL48:
 771              		.loc 1 455 3 view .LVU213
 772 002e FFF7FEFF 		bl	HAL_GPIO_Init
 773              	.LVL49:
 456:Drivers/BSP/STM32746G-Discovery/stm32746g_discovery_sd.c **** }
 774              		.loc 1 456 1 view .LVU214
 775 0032 07B0     		add	sp, sp, #28
 776              	.LCFI21:
 777              		.cfi_def_cfa_offset 4
 778              		@ sp needed
 779 0034 5DF804FB 		ldr	pc, [sp], #4
 780              	.L43:
 781              		.align	2
 782              	.L42:
 783 0038 00380240 		.word	1073887232
 784 003c 00080240 		.word	1073874944
 785              		.cfi_endproc
 786              	.LFE151:
 788              		.section	.text.BSP_SD_Init,"ax",%progbits
 789              		.align	1
 790              		.global	BSP_SD_Init
 791              		.syntax unified
 792              		.thumb
 793              		.thumb_func
 795              	BSP_SD_Init:
 796              	.LFB141:
 133:Drivers/BSP/STM32746G-Discovery/stm32746g_discovery_sd.c ****   uint8_t sd_state = MSD_OK;
 797              		.loc 1 133 1 is_stmt 1 view -0
 798              		.cfi_startproc
 799              		@ args = 0, pretend = 0, frame = 0
 800              		@ frame_needed = 0, uses_anonymous_args = 0
 801 0000 38B5     		push	{r3, r4, r5, lr}
 802              	.LCFI22:
 803              		.cfi_def_cfa_offset 16
 804              		.cfi_offset 3, -16
 805              		.cfi_offset 4, -12
 806              		.cfi_offset 5, -8
 807              		.cfi_offset 14, -4
 134:Drivers/BSP/STM32746G-Discovery/stm32746g_discovery_sd.c ****   
 808              		.loc 1 134 3 view .LVU216
 809              	.LVL50:
 137:Drivers/BSP/STM32746G-Discovery/stm32746g_discovery_sd.c **** 
 810              		.loc 1 137 3 view .LVU217
 137:Drivers/BSP/STM32746G-Discovery/stm32746g_discovery_sd.c **** 
 811              		.loc 1 137 22 is_stmt 0 view .LVU218
ARM GAS  D:\cygwin64\tmp\ccfPYmj9.s 			page 23


 812 0002 1348     		ldr	r0, .L50
 813 0004 134B     		ldr	r3, .L50+4
 814 0006 0360     		str	r3, [r0]
 139:Drivers/BSP/STM32746G-Discovery/stm32746g_discovery_sd.c ****   uSdHandle.Init.ClockBypass         = SDMMC_CLOCK_BYPASS_DISABLE;
 815              		.loc 1 139 3 is_stmt 1 view .LVU219
 139:Drivers/BSP/STM32746G-Discovery/stm32746g_discovery_sd.c ****   uSdHandle.Init.ClockBypass         = SDMMC_CLOCK_BYPASS_DISABLE;
 816              		.loc 1 139 38 is_stmt 0 view .LVU220
 817 0008 0021     		movs	r1, #0
 818 000a 4160     		str	r1, [r0, #4]
 140:Drivers/BSP/STM32746G-Discovery/stm32746g_discovery_sd.c ****   uSdHandle.Init.ClockPowerSave      = SDMMC_CLOCK_POWER_SAVE_DISABLE;
 819              		.loc 1 140 3 is_stmt 1 view .LVU221
 140:Drivers/BSP/STM32746G-Discovery/stm32746g_discovery_sd.c ****   uSdHandle.Init.ClockPowerSave      = SDMMC_CLOCK_POWER_SAVE_DISABLE;
 820              		.loc 1 140 38 is_stmt 0 view .LVU222
 821 000c 8160     		str	r1, [r0, #8]
 141:Drivers/BSP/STM32746G-Discovery/stm32746g_discovery_sd.c ****   uSdHandle.Init.BusWide             = SDMMC_BUS_WIDE_1B;
 822              		.loc 1 141 3 is_stmt 1 view .LVU223
 141:Drivers/BSP/STM32746G-Discovery/stm32746g_discovery_sd.c ****   uSdHandle.Init.BusWide             = SDMMC_BUS_WIDE_1B;
 823              		.loc 1 141 38 is_stmt 0 view .LVU224
 824 000e C160     		str	r1, [r0, #12]
 142:Drivers/BSP/STM32746G-Discovery/stm32746g_discovery_sd.c ****   uSdHandle.Init.HardwareFlowControl = SDMMC_HARDWARE_FLOW_CONTROL_DISABLE;
 825              		.loc 1 142 3 is_stmt 1 view .LVU225
 142:Drivers/BSP/STM32746G-Discovery/stm32746g_discovery_sd.c ****   uSdHandle.Init.HardwareFlowControl = SDMMC_HARDWARE_FLOW_CONTROL_DISABLE;
 826              		.loc 1 142 38 is_stmt 0 view .LVU226
 827 0010 0161     		str	r1, [r0, #16]
 143:Drivers/BSP/STM32746G-Discovery/stm32746g_discovery_sd.c ****   uSdHandle.Init.ClockDiv            = SDMMC_TRANSFER_CLK_DIV;
 828              		.loc 1 143 3 is_stmt 1 view .LVU227
 143:Drivers/BSP/STM32746G-Discovery/stm32746g_discovery_sd.c ****   uSdHandle.Init.ClockDiv            = SDMMC_TRANSFER_CLK_DIV;
 829              		.loc 1 143 38 is_stmt 0 view .LVU228
 830 0012 4161     		str	r1, [r0, #20]
 144:Drivers/BSP/STM32746G-Discovery/stm32746g_discovery_sd.c ****   
 831              		.loc 1 144 3 is_stmt 1 view .LVU229
 144:Drivers/BSP/STM32746G-Discovery/stm32746g_discovery_sd.c ****   
 832              		.loc 1 144 38 is_stmt 0 view .LVU230
 833 0014 8161     		str	r1, [r0, #24]
 147:Drivers/BSP/STM32746G-Discovery/stm32746g_discovery_sd.c ****   if(BSP_SD_IsDetected() != SD_PRESENT)   /* Check if SD card is present */
 834              		.loc 1 147 3 is_stmt 1 view .LVU231
 835 0016 FFF7FEFF 		bl	BSP_SD_Detect_MspInit
 836              	.LVL51:
 148:Drivers/BSP/STM32746G-Discovery/stm32746g_discovery_sd.c ****   {
 837              		.loc 1 148 3 view .LVU232
 148:Drivers/BSP/STM32746G-Discovery/stm32746g_discovery_sd.c ****   {
 838              		.loc 1 148 6 is_stmt 0 view .LVU233
 839 001a FFF7FEFF 		bl	BSP_SD_IsDetected
 840              	.LVL52:
 148:Drivers/BSP/STM32746G-Discovery/stm32746g_discovery_sd.c ****   {
 841              		.loc 1 148 5 discriminator 1 view .LVU234
 842 001e 0128     		cmp	r0, #1
 843 0020 02D0     		beq	.L49
 150:Drivers/BSP/STM32746G-Discovery/stm32746g_discovery_sd.c ****   }
 844              		.loc 1 150 12 view .LVU235
 845 0022 0224     		movs	r4, #2
 846              	.L45:
 847              	.LVL53:
 177:Drivers/BSP/STM32746G-Discovery/stm32746g_discovery_sd.c **** 
 848              		.loc 1 177 1 view .LVU236
 849 0024 2046     		mov	r0, r4
 850 0026 38BD     		pop	{r3, r4, r5, pc}
ARM GAS  D:\cygwin64\tmp\ccfPYmj9.s 			page 24


 851              	.LVL54:
 852              	.L49:
 177:Drivers/BSP/STM32746G-Discovery/stm32746g_discovery_sd.c **** 
 853              		.loc 1 177 1 view .LVU237
 854 0028 0446     		mov	r4, r0
 154:Drivers/BSP/STM32746G-Discovery/stm32746g_discovery_sd.c **** 
 855              		.loc 1 154 3 is_stmt 1 view .LVU238
 856 002a 094D     		ldr	r5, .L50
 857 002c 0021     		movs	r1, #0
 858 002e 2846     		mov	r0, r5
 859 0030 FFF7FEFF 		bl	BSP_SD_MspInit
 860              	.LVL55:
 157:Drivers/BSP/STM32746G-Discovery/stm32746g_discovery_sd.c ****   {
 861              		.loc 1 157 3 view .LVU239
 157:Drivers/BSP/STM32746G-Discovery/stm32746g_discovery_sd.c ****   {
 862              		.loc 1 157 6 is_stmt 0 view .LVU240
 863 0034 2846     		mov	r0, r5
 864 0036 FFF7FEFF 		bl	HAL_SD_Init
 865              	.LVL56:
 157:Drivers/BSP/STM32746G-Discovery/stm32746g_discovery_sd.c ****   {
 866              		.loc 1 157 5 discriminator 1 view .LVU241
 867 003a 0028     		cmp	r0, #0
 868 003c F2D1     		bne	.L45
 163:Drivers/BSP/STM32746G-Discovery/stm32746g_discovery_sd.c ****   {
 869              		.loc 1 163 3 is_stmt 1 view .LVU242
 166:Drivers/BSP/STM32746G-Discovery/stm32746g_discovery_sd.c ****     {
 870              		.loc 1 166 5 view .LVU243
 166:Drivers/BSP/STM32746G-Discovery/stm32746g_discovery_sd.c ****     {
 871              		.loc 1 166 8 is_stmt 0 view .LVU244
 872 003e 4FF40061 		mov	r1, #2048
 873 0042 2846     		mov	r0, r5
 874 0044 FFF7FEFF 		bl	HAL_SD_ConfigWideBusOperation
 875              	.LVL57:
 166:Drivers/BSP/STM32746G-Discovery/stm32746g_discovery_sd.c ****     {
 876              		.loc 1 166 7 discriminator 1 view .LVU245
 877 0048 0028     		cmp	r0, #0
 878 004a EBD1     		bne	.L45
 172:Drivers/BSP/STM32746G-Discovery/stm32746g_discovery_sd.c ****     }
 879              		.loc 1 172 16 view .LVU246
 880 004c 0446     		mov	r4, r0
 881 004e E9E7     		b	.L45
 882              	.L51:
 883              		.align	2
 884              	.L50:
 885 0050 00000000 		.word	uSdHandle
 886 0054 002C0140 		.word	1073818624
 887              		.cfi_endproc
 888              	.LFE141:
 890              		.section	.text.BSP_SD_MspDeInit,"ax",%progbits
 891              		.align	1
 892              		.weak	BSP_SD_MspDeInit
 893              		.syntax unified
 894              		.thumb
 895              		.thumb_func
 897              	BSP_SD_MspDeInit:
 898              	.LVL58:
 899              	.LFB152:
ARM GAS  D:\cygwin64\tmp\ccfPYmj9.s 			page 25


 457:Drivers/BSP/STM32746G-Discovery/stm32746g_discovery_sd.c **** 
 458:Drivers/BSP/STM32746G-Discovery/stm32746g_discovery_sd.c **** /**
 459:Drivers/BSP/STM32746G-Discovery/stm32746g_discovery_sd.c ****   * @brief  DeInitializes the SD MSP.
 460:Drivers/BSP/STM32746G-Discovery/stm32746g_discovery_sd.c ****   * @param  hsd: SD handle
 461:Drivers/BSP/STM32746G-Discovery/stm32746g_discovery_sd.c ****   * @param  Params
 462:Drivers/BSP/STM32746G-Discovery/stm32746g_discovery_sd.c ****   * @retval None
 463:Drivers/BSP/STM32746G-Discovery/stm32746g_discovery_sd.c ****   */
 464:Drivers/BSP/STM32746G-Discovery/stm32746g_discovery_sd.c **** __weak void BSP_SD_MspDeInit(SD_HandleTypeDef *hsd, void *Params)
 465:Drivers/BSP/STM32746G-Discovery/stm32746g_discovery_sd.c **** {
 900              		.loc 1 465 1 is_stmt 1 view -0
 901              		.cfi_startproc
 902              		@ args = 0, pretend = 0, frame = 0
 903              		@ frame_needed = 0, uses_anonymous_args = 0
 904              		.loc 1 465 1 is_stmt 0 view .LVU248
 905 0000 08B5     		push	{r3, lr}
 906              	.LCFI23:
 907              		.cfi_def_cfa_offset 8
 908              		.cfi_offset 3, -8
 909              		.cfi_offset 14, -4
 466:Drivers/BSP/STM32746G-Discovery/stm32746g_discovery_sd.c ****   static DMA_HandleTypeDef dma_rx_handle;
 910              		.loc 1 466 3 is_stmt 1 view .LVU249
 467:Drivers/BSP/STM32746G-Discovery/stm32746g_discovery_sd.c ****   static DMA_HandleTypeDef dma_tx_handle;
 911              		.loc 1 467 3 view .LVU250
 468:Drivers/BSP/STM32746G-Discovery/stm32746g_discovery_sd.c **** 
 469:Drivers/BSP/STM32746G-Discovery/stm32746g_discovery_sd.c ****   /* Disable NVIC for DMA transfer complete interrupts */
 470:Drivers/BSP/STM32746G-Discovery/stm32746g_discovery_sd.c ****   HAL_NVIC_DisableIRQ(SD_DMAx_Rx_IRQn);
 912              		.loc 1 470 3 view .LVU251
 913 0002 3B20     		movs	r0, #59
 914              	.LVL59:
 915              		.loc 1 470 3 is_stmt 0 view .LVU252
 916 0004 FFF7FEFF 		bl	HAL_NVIC_DisableIRQ
 917              	.LVL60:
 471:Drivers/BSP/STM32746G-Discovery/stm32746g_discovery_sd.c ****   HAL_NVIC_DisableIRQ(SD_DMAx_Tx_IRQn);
 918              		.loc 1 471 3 is_stmt 1 view .LVU253
 919 0008 4520     		movs	r0, #69
 920 000a FFF7FEFF 		bl	HAL_NVIC_DisableIRQ
 921              	.LVL61:
 472:Drivers/BSP/STM32746G-Discovery/stm32746g_discovery_sd.c **** 
 473:Drivers/BSP/STM32746G-Discovery/stm32746g_discovery_sd.c ****   /* Deinitialize the stream for new transfer */
 474:Drivers/BSP/STM32746G-Discovery/stm32746g_discovery_sd.c ****   dma_rx_handle.Instance = SD_DMAx_Rx_STREAM;
 922              		.loc 1 474 3 view .LVU254
 923              		.loc 1 474 26 is_stmt 0 view .LVU255
 924 000e 0948     		ldr	r0, .L54
 925 0010 094B     		ldr	r3, .L54+4
 926 0012 0360     		str	r3, [r0]
 475:Drivers/BSP/STM32746G-Discovery/stm32746g_discovery_sd.c ****   HAL_DMA_DeInit(&dma_rx_handle);
 927              		.loc 1 475 3 is_stmt 1 view .LVU256
 928 0014 FFF7FEFF 		bl	HAL_DMA_DeInit
 929              	.LVL62:
 476:Drivers/BSP/STM32746G-Discovery/stm32746g_discovery_sd.c **** 
 477:Drivers/BSP/STM32746G-Discovery/stm32746g_discovery_sd.c ****   /* Deinitialize the stream for new transfer */
 478:Drivers/BSP/STM32746G-Discovery/stm32746g_discovery_sd.c ****   dma_tx_handle.Instance = SD_DMAx_Tx_STREAM;
 930              		.loc 1 478 3 view .LVU257
 931              		.loc 1 478 26 is_stmt 0 view .LVU258
 932 0018 0848     		ldr	r0, .L54+8
 933 001a 094B     		ldr	r3, .L54+12
 934 001c 0360     		str	r3, [r0]
ARM GAS  D:\cygwin64\tmp\ccfPYmj9.s 			page 26


 479:Drivers/BSP/STM32746G-Discovery/stm32746g_discovery_sd.c ****   HAL_DMA_DeInit(&dma_tx_handle);
 935              		.loc 1 479 3 is_stmt 1 view .LVU259
 936 001e FFF7FEFF 		bl	HAL_DMA_DeInit
 937              	.LVL63:
 480:Drivers/BSP/STM32746G-Discovery/stm32746g_discovery_sd.c **** 
 481:Drivers/BSP/STM32746G-Discovery/stm32746g_discovery_sd.c ****   /* Disable NVIC for SDIO interrupts */
 482:Drivers/BSP/STM32746G-Discovery/stm32746g_discovery_sd.c ****   HAL_NVIC_DisableIRQ(SDMMC1_IRQn);
 938              		.loc 1 482 3 view .LVU260
 939 0022 3120     		movs	r0, #49
 940 0024 FFF7FEFF 		bl	HAL_NVIC_DisableIRQ
 941              	.LVL64:
 483:Drivers/BSP/STM32746G-Discovery/stm32746g_discovery_sd.c **** 
 484:Drivers/BSP/STM32746G-Discovery/stm32746g_discovery_sd.c ****   /* DeInit GPIO pins can be done in the application
 485:Drivers/BSP/STM32746G-Discovery/stm32746g_discovery_sd.c ****      (by surcharging this __weak function) */
 486:Drivers/BSP/STM32746G-Discovery/stm32746g_discovery_sd.c **** 
 487:Drivers/BSP/STM32746G-Discovery/stm32746g_discovery_sd.c ****   /* Disable SDMMC1 clock */
 488:Drivers/BSP/STM32746G-Discovery/stm32746g_discovery_sd.c ****   __HAL_RCC_SDMMC1_CLK_DISABLE();
 942              		.loc 1 488 3 view .LVU261
 943 0028 064A     		ldr	r2, .L54+16
 944 002a 536C     		ldr	r3, [r2, #68]
 945 002c 23F40063 		bic	r3, r3, #2048
 946 0030 5364     		str	r3, [r2, #68]
 489:Drivers/BSP/STM32746G-Discovery/stm32746g_discovery_sd.c **** 
 490:Drivers/BSP/STM32746G-Discovery/stm32746g_discovery_sd.c ****   /* GPIO pins clock and DMA clocks can be shut down in the application
 491:Drivers/BSP/STM32746G-Discovery/stm32746g_discovery_sd.c ****      by surcharging this __weak function */
 492:Drivers/BSP/STM32746G-Discovery/stm32746g_discovery_sd.c **** }
 947              		.loc 1 492 1 is_stmt 0 view .LVU262
 948 0032 08BD     		pop	{r3, pc}
 949              	.L55:
 950              		.align	2
 951              	.L54:
 952 0034 00000000 		.word	dma_rx_handle.1
 953 0038 58640240 		.word	1073898584
 954 003c 00000000 		.word	dma_tx_handle.0
 955 0040 A0640240 		.word	1073898656
 956 0044 00380240 		.word	1073887232
 957              		.cfi_endproc
 958              	.LFE152:
 960              		.section	.text.BSP_SD_DeInit,"ax",%progbits
 961              		.align	1
 962              		.global	BSP_SD_DeInit
 963              		.syntax unified
 964              		.thumb
 965              		.thumb_func
 967              	BSP_SD_DeInit:
 968              	.LFB142:
 184:Drivers/BSP/STM32746G-Discovery/stm32746g_discovery_sd.c ****   uint8_t sd_state = MSD_OK;
 969              		.loc 1 184 1 is_stmt 1 view -0
 970              		.cfi_startproc
 971              		@ args = 0, pretend = 0, frame = 0
 972              		@ frame_needed = 0, uses_anonymous_args = 0
 973 0000 10B5     		push	{r4, lr}
 974              	.LCFI24:
 975              		.cfi_def_cfa_offset 8
 976              		.cfi_offset 4, -8
 977              		.cfi_offset 14, -4
 185:Drivers/BSP/STM32746G-Discovery/stm32746g_discovery_sd.c ****  
ARM GAS  D:\cygwin64\tmp\ccfPYmj9.s 			page 27


 978              		.loc 1 185 3 view .LVU264
 979              	.LVL65:
 187:Drivers/BSP/STM32746G-Discovery/stm32746g_discovery_sd.c ****   
 980              		.loc 1 187 3 view .LVU265
 187:Drivers/BSP/STM32746G-Discovery/stm32746g_discovery_sd.c ****   
 981              		.loc 1 187 22 is_stmt 0 view .LVU266
 982 0002 0848     		ldr	r0, .L60
 983 0004 084B     		ldr	r3, .L60+4
 984 0006 0360     		str	r3, [r0]
 190:Drivers/BSP/STM32746G-Discovery/stm32746g_discovery_sd.c ****   {
 985              		.loc 1 190 3 is_stmt 1 view .LVU267
 190:Drivers/BSP/STM32746G-Discovery/stm32746g_discovery_sd.c ****   {
 986              		.loc 1 190 6 is_stmt 0 view .LVU268
 987 0008 FFF7FEFF 		bl	HAL_SD_DeInit
 988              	.LVL66:
 190:Drivers/BSP/STM32746G-Discovery/stm32746g_discovery_sd.c ****   {
 989              		.loc 1 190 5 discriminator 1 view .LVU269
 990 000c 0446     		mov	r4, r0
 991 000e 00B1     		cbz	r0, .L57
 192:Drivers/BSP/STM32746G-Discovery/stm32746g_discovery_sd.c ****   }
 992              		.loc 1 192 14 view .LVU270
 993 0010 0124     		movs	r4, #1
 994              	.L57:
 995              	.LVL67:
 196:Drivers/BSP/STM32746G-Discovery/stm32746g_discovery_sd.c ****   BSP_SD_MspDeInit(&uSdHandle, NULL);
 996              		.loc 1 196 3 is_stmt 1 view .LVU271
 196:Drivers/BSP/STM32746G-Discovery/stm32746g_discovery_sd.c ****   BSP_SD_MspDeInit(&uSdHandle, NULL);
 997              		.loc 1 196 22 is_stmt 0 view .LVU272
 998 0012 0448     		ldr	r0, .L60
 999 0014 044B     		ldr	r3, .L60+4
 1000 0016 0360     		str	r3, [r0]
 197:Drivers/BSP/STM32746G-Discovery/stm32746g_discovery_sd.c ****   
 1001              		.loc 1 197 3 is_stmt 1 view .LVU273
 1002 0018 0021     		movs	r1, #0
 1003 001a FFF7FEFF 		bl	BSP_SD_MspDeInit
 1004              	.LVL68:
 199:Drivers/BSP/STM32746G-Discovery/stm32746g_discovery_sd.c **** }
 1005              		.loc 1 199 3 view .LVU274
 200:Drivers/BSP/STM32746G-Discovery/stm32746g_discovery_sd.c **** 
 1006              		.loc 1 200 1 is_stmt 0 view .LVU275
 1007 001e 2046     		mov	r0, r4
 1008 0020 10BD     		pop	{r4, pc}
 1009              	.LVL69:
 1010              	.L61:
 200:Drivers/BSP/STM32746G-Discovery/stm32746g_discovery_sd.c **** 
 1011              		.loc 1 200 1 view .LVU276
 1012 0022 00BF     		.align	2
 1013              	.L60:
 1014 0024 00000000 		.word	uSdHandle
 1015 0028 002C0140 		.word	1073818624
 1016              		.cfi_endproc
 1017              	.LFE142:
 1019              		.section	.text.BSP_SD_GetCardState,"ax",%progbits
 1020              		.align	1
 1021              		.global	BSP_SD_GetCardState
 1022              		.syntax unified
 1023              		.thumb
ARM GAS  D:\cygwin64\tmp\ccfPYmj9.s 			page 28


 1024              		.thumb_func
 1026              	BSP_SD_GetCardState:
 1027              	.LFB153:
 493:Drivers/BSP/STM32746G-Discovery/stm32746g_discovery_sd.c **** 
 494:Drivers/BSP/STM32746G-Discovery/stm32746g_discovery_sd.c **** /**
 495:Drivers/BSP/STM32746G-Discovery/stm32746g_discovery_sd.c ****   * @brief  Gets the current SD card data status.
 496:Drivers/BSP/STM32746G-Discovery/stm32746g_discovery_sd.c ****   * @retval Data transfer state.
 497:Drivers/BSP/STM32746G-Discovery/stm32746g_discovery_sd.c ****   *          This value can be one of the following values:
 498:Drivers/BSP/STM32746G-Discovery/stm32746g_discovery_sd.c ****   *            @arg  SD_TRANSFER_OK: No data transfer is acting
 499:Drivers/BSP/STM32746G-Discovery/stm32746g_discovery_sd.c ****   *            @arg  SD_TRANSFER_BUSY: Data transfer is acting
 500:Drivers/BSP/STM32746G-Discovery/stm32746g_discovery_sd.c ****   */
 501:Drivers/BSP/STM32746G-Discovery/stm32746g_discovery_sd.c **** uint8_t BSP_SD_GetCardState(void)
 502:Drivers/BSP/STM32746G-Discovery/stm32746g_discovery_sd.c **** {
 1028              		.loc 1 502 1 is_stmt 1 view -0
 1029              		.cfi_startproc
 1030              		@ args = 0, pretend = 0, frame = 0
 1031              		@ frame_needed = 0, uses_anonymous_args = 0
 1032 0000 08B5     		push	{r3, lr}
 1033              	.LCFI25:
 1034              		.cfi_def_cfa_offset 8
 1035              		.cfi_offset 3, -8
 1036              		.cfi_offset 14, -4
 503:Drivers/BSP/STM32746G-Discovery/stm32746g_discovery_sd.c ****   return((HAL_SD_GetCardState(&uSdHandle) == HAL_SD_CARD_TRANSFER ) ? SD_TRANSFER_OK : SD_TRANSFER_
 1037              		.loc 1 503 3 view .LVU278
 1038              		.loc 1 503 11 is_stmt 0 view .LVU279
 1039 0002 0348     		ldr	r0, .L64
 1040 0004 FFF7FEFF 		bl	HAL_SD_GetCardState
 1041              	.LVL70:
 504:Drivers/BSP/STM32746G-Discovery/stm32746g_discovery_sd.c **** }
 1042              		.loc 1 504 1 view .LVU280
 1043 0008 0438     		subs	r0, r0, #4
 1044 000a 18BF     		it	ne
 1045 000c 0120     		movne	r0, #1
 1046 000e 08BD     		pop	{r3, pc}
 1047              	.L65:
 1048              		.align	2
 1049              	.L64:
 1050 0010 00000000 		.word	uSdHandle
 1051              		.cfi_endproc
 1052              	.LFE153:
 1054              		.section	.text.BSP_SD_GetCardInfo,"ax",%progbits
 1055              		.align	1
 1056              		.global	BSP_SD_GetCardInfo
 1057              		.syntax unified
 1058              		.thumb
 1059              		.thumb_func
 1061              	BSP_SD_GetCardInfo:
 1062              	.LVL71:
 1063              	.LFB154:
 505:Drivers/BSP/STM32746G-Discovery/stm32746g_discovery_sd.c ****   
 506:Drivers/BSP/STM32746G-Discovery/stm32746g_discovery_sd.c **** 
 507:Drivers/BSP/STM32746G-Discovery/stm32746g_discovery_sd.c **** /**
 508:Drivers/BSP/STM32746G-Discovery/stm32746g_discovery_sd.c ****   * @brief  Get SD information about specific SD card.
 509:Drivers/BSP/STM32746G-Discovery/stm32746g_discovery_sd.c ****   * @param  CardInfo: Pointer to HAL_SD_CardInfoTypedef structure
 510:Drivers/BSP/STM32746G-Discovery/stm32746g_discovery_sd.c ****   * @retval None 
 511:Drivers/BSP/STM32746G-Discovery/stm32746g_discovery_sd.c ****   */
 512:Drivers/BSP/STM32746G-Discovery/stm32746g_discovery_sd.c **** void BSP_SD_GetCardInfo(HAL_SD_CardInfoTypeDef *CardInfo)
ARM GAS  D:\cygwin64\tmp\ccfPYmj9.s 			page 29


 513:Drivers/BSP/STM32746G-Discovery/stm32746g_discovery_sd.c **** {
 1064              		.loc 1 513 1 is_stmt 1 view -0
 1065              		.cfi_startproc
 1066              		@ args = 0, pretend = 0, frame = 0
 1067              		@ frame_needed = 0, uses_anonymous_args = 0
 1068              		.loc 1 513 1 is_stmt 0 view .LVU282
 1069 0000 08B5     		push	{r3, lr}
 1070              	.LCFI26:
 1071              		.cfi_def_cfa_offset 8
 1072              		.cfi_offset 3, -8
 1073              		.cfi_offset 14, -4
 1074 0002 0146     		mov	r1, r0
 514:Drivers/BSP/STM32746G-Discovery/stm32746g_discovery_sd.c ****   /* Get SD card Information */
 515:Drivers/BSP/STM32746G-Discovery/stm32746g_discovery_sd.c ****   HAL_SD_GetCardInfo(&uSdHandle, CardInfo);
 1075              		.loc 1 515 3 is_stmt 1 view .LVU283
 1076 0004 0148     		ldr	r0, .L68
 1077              	.LVL72:
 1078              		.loc 1 515 3 is_stmt 0 view .LVU284
 1079 0006 FFF7FEFF 		bl	HAL_SD_GetCardInfo
 1080              	.LVL73:
 516:Drivers/BSP/STM32746G-Discovery/stm32746g_discovery_sd.c **** }
 1081              		.loc 1 516 1 view .LVU285
 1082 000a 08BD     		pop	{r3, pc}
 1083              	.L69:
 1084              		.align	2
 1085              	.L68:
 1086 000c 00000000 		.word	uSdHandle
 1087              		.cfi_endproc
 1088              	.LFE154:
 1090              		.section	.text.BSP_SD_AbortCallback,"ax",%progbits
 1091              		.align	1
 1092              		.weak	BSP_SD_AbortCallback
 1093              		.syntax unified
 1094              		.thumb
 1095              		.thumb_func
 1097              	BSP_SD_AbortCallback:
 1098              	.LFB158:
 517:Drivers/BSP/STM32746G-Discovery/stm32746g_discovery_sd.c **** 
 518:Drivers/BSP/STM32746G-Discovery/stm32746g_discovery_sd.c **** /**
 519:Drivers/BSP/STM32746G-Discovery/stm32746g_discovery_sd.c ****   * @brief SD Abort callbacks
 520:Drivers/BSP/STM32746G-Discovery/stm32746g_discovery_sd.c ****   * @param hsd: SD handle
 521:Drivers/BSP/STM32746G-Discovery/stm32746g_discovery_sd.c ****   * @retval None
 522:Drivers/BSP/STM32746G-Discovery/stm32746g_discovery_sd.c ****   */
 523:Drivers/BSP/STM32746G-Discovery/stm32746g_discovery_sd.c **** void HAL_SD_AbortCallback(SD_HandleTypeDef *hsd)
 524:Drivers/BSP/STM32746G-Discovery/stm32746g_discovery_sd.c **** {
 525:Drivers/BSP/STM32746G-Discovery/stm32746g_discovery_sd.c ****   BSP_SD_AbortCallback();
 526:Drivers/BSP/STM32746G-Discovery/stm32746g_discovery_sd.c **** }
 527:Drivers/BSP/STM32746G-Discovery/stm32746g_discovery_sd.c **** 
 528:Drivers/BSP/STM32746G-Discovery/stm32746g_discovery_sd.c **** /**
 529:Drivers/BSP/STM32746G-Discovery/stm32746g_discovery_sd.c ****   * @brief Tx Transfer completed callbacks
 530:Drivers/BSP/STM32746G-Discovery/stm32746g_discovery_sd.c ****   * @param hsd: SD handle
 531:Drivers/BSP/STM32746G-Discovery/stm32746g_discovery_sd.c ****   * @retval None
 532:Drivers/BSP/STM32746G-Discovery/stm32746g_discovery_sd.c ****   */
 533:Drivers/BSP/STM32746G-Discovery/stm32746g_discovery_sd.c **** void HAL_SD_TxCpltCallback(SD_HandleTypeDef *hsd)
 534:Drivers/BSP/STM32746G-Discovery/stm32746g_discovery_sd.c **** {
 535:Drivers/BSP/STM32746G-Discovery/stm32746g_discovery_sd.c ****   BSP_SD_WriteCpltCallback();
 536:Drivers/BSP/STM32746G-Discovery/stm32746g_discovery_sd.c **** }
ARM GAS  D:\cygwin64\tmp\ccfPYmj9.s 			page 30


 537:Drivers/BSP/STM32746G-Discovery/stm32746g_discovery_sd.c **** 
 538:Drivers/BSP/STM32746G-Discovery/stm32746g_discovery_sd.c **** /**
 539:Drivers/BSP/STM32746G-Discovery/stm32746g_discovery_sd.c ****   * @brief Rx Transfer completed callbacks
 540:Drivers/BSP/STM32746G-Discovery/stm32746g_discovery_sd.c ****   * @param hsd: SD handle
 541:Drivers/BSP/STM32746G-Discovery/stm32746g_discovery_sd.c ****   * @retval None
 542:Drivers/BSP/STM32746G-Discovery/stm32746g_discovery_sd.c ****   */
 543:Drivers/BSP/STM32746G-Discovery/stm32746g_discovery_sd.c **** void HAL_SD_RxCpltCallback(SD_HandleTypeDef *hsd)
 544:Drivers/BSP/STM32746G-Discovery/stm32746g_discovery_sd.c **** {
 545:Drivers/BSP/STM32746G-Discovery/stm32746g_discovery_sd.c ****   BSP_SD_ReadCpltCallback();
 546:Drivers/BSP/STM32746G-Discovery/stm32746g_discovery_sd.c **** }
 547:Drivers/BSP/STM32746G-Discovery/stm32746g_discovery_sd.c **** 
 548:Drivers/BSP/STM32746G-Discovery/stm32746g_discovery_sd.c **** /**
 549:Drivers/BSP/STM32746G-Discovery/stm32746g_discovery_sd.c ****   * @brief BSP SD Abort callbacks
 550:Drivers/BSP/STM32746G-Discovery/stm32746g_discovery_sd.c ****   * @retval None
 551:Drivers/BSP/STM32746G-Discovery/stm32746g_discovery_sd.c ****   */
 552:Drivers/BSP/STM32746G-Discovery/stm32746g_discovery_sd.c **** __weak void BSP_SD_AbortCallback(void)
 553:Drivers/BSP/STM32746G-Discovery/stm32746g_discovery_sd.c **** {
 1099              		.loc 1 553 1 is_stmt 1 view -0
 1100              		.cfi_startproc
 1101              		@ args = 0, pretend = 0, frame = 0
 1102              		@ frame_needed = 0, uses_anonymous_args = 0
 1103              		@ link register save eliminated.
 554:Drivers/BSP/STM32746G-Discovery/stm32746g_discovery_sd.c **** 
 555:Drivers/BSP/STM32746G-Discovery/stm32746g_discovery_sd.c **** }
 1104              		.loc 1 555 1 view .LVU287
 1105 0000 7047     		bx	lr
 1106              		.cfi_endproc
 1107              	.LFE158:
 1109              		.section	.text.HAL_SD_AbortCallback,"ax",%progbits
 1110              		.align	1
 1111              		.global	HAL_SD_AbortCallback
 1112              		.syntax unified
 1113              		.thumb
 1114              		.thumb_func
 1116              	HAL_SD_AbortCallback:
 1117              	.LVL74:
 1118              	.LFB155:
 524:Drivers/BSP/STM32746G-Discovery/stm32746g_discovery_sd.c ****   BSP_SD_AbortCallback();
 1119              		.loc 1 524 1 view -0
 1120              		.cfi_startproc
 1121              		@ args = 0, pretend = 0, frame = 0
 1122              		@ frame_needed = 0, uses_anonymous_args = 0
 524:Drivers/BSP/STM32746G-Discovery/stm32746g_discovery_sd.c ****   BSP_SD_AbortCallback();
 1123              		.loc 1 524 1 is_stmt 0 view .LVU289
 1124 0000 08B5     		push	{r3, lr}
 1125              	.LCFI27:
 1126              		.cfi_def_cfa_offset 8
 1127              		.cfi_offset 3, -8
 1128              		.cfi_offset 14, -4
 525:Drivers/BSP/STM32746G-Discovery/stm32746g_discovery_sd.c **** }
 1129              		.loc 1 525 3 is_stmt 1 view .LVU290
 1130 0002 FFF7FEFF 		bl	BSP_SD_AbortCallback
 1131              	.LVL75:
 526:Drivers/BSP/STM32746G-Discovery/stm32746g_discovery_sd.c **** 
 1132              		.loc 1 526 1 is_stmt 0 view .LVU291
 1133 0006 08BD     		pop	{r3, pc}
 1134              		.cfi_endproc
ARM GAS  D:\cygwin64\tmp\ccfPYmj9.s 			page 31


 1135              	.LFE155:
 1137              		.section	.text.BSP_SD_WriteCpltCallback,"ax",%progbits
 1138              		.align	1
 1139              		.weak	BSP_SD_WriteCpltCallback
 1140              		.syntax unified
 1141              		.thumb
 1142              		.thumb_func
 1144              	BSP_SD_WriteCpltCallback:
 1145              	.LFB159:
 556:Drivers/BSP/STM32746G-Discovery/stm32746g_discovery_sd.c **** 
 557:Drivers/BSP/STM32746G-Discovery/stm32746g_discovery_sd.c **** /**
 558:Drivers/BSP/STM32746G-Discovery/stm32746g_discovery_sd.c ****   * @brief BSP Tx Transfer completed callbacks
 559:Drivers/BSP/STM32746G-Discovery/stm32746g_discovery_sd.c ****   * @retval None
 560:Drivers/BSP/STM32746G-Discovery/stm32746g_discovery_sd.c ****   */
 561:Drivers/BSP/STM32746G-Discovery/stm32746g_discovery_sd.c **** __weak void BSP_SD_WriteCpltCallback(void)
 562:Drivers/BSP/STM32746G-Discovery/stm32746g_discovery_sd.c **** {
 1146              		.loc 1 562 1 is_stmt 1 view -0
 1147              		.cfi_startproc
 1148              		@ args = 0, pretend = 0, frame = 0
 1149              		@ frame_needed = 0, uses_anonymous_args = 0
 1150              		@ link register save eliminated.
 563:Drivers/BSP/STM32746G-Discovery/stm32746g_discovery_sd.c **** 
 564:Drivers/BSP/STM32746G-Discovery/stm32746g_discovery_sd.c **** }
 1151              		.loc 1 564 1 view .LVU293
 1152 0000 7047     		bx	lr
 1153              		.cfi_endproc
 1154              	.LFE159:
 1156              		.section	.text.HAL_SD_TxCpltCallback,"ax",%progbits
 1157              		.align	1
 1158              		.global	HAL_SD_TxCpltCallback
 1159              		.syntax unified
 1160              		.thumb
 1161              		.thumb_func
 1163              	HAL_SD_TxCpltCallback:
 1164              	.LVL76:
 1165              	.LFB156:
 534:Drivers/BSP/STM32746G-Discovery/stm32746g_discovery_sd.c ****   BSP_SD_WriteCpltCallback();
 1166              		.loc 1 534 1 view -0
 1167              		.cfi_startproc
 1168              		@ args = 0, pretend = 0, frame = 0
 1169              		@ frame_needed = 0, uses_anonymous_args = 0
 534:Drivers/BSP/STM32746G-Discovery/stm32746g_discovery_sd.c ****   BSP_SD_WriteCpltCallback();
 1170              		.loc 1 534 1 is_stmt 0 view .LVU295
 1171 0000 08B5     		push	{r3, lr}
 1172              	.LCFI28:
 1173              		.cfi_def_cfa_offset 8
 1174              		.cfi_offset 3, -8
 1175              		.cfi_offset 14, -4
 535:Drivers/BSP/STM32746G-Discovery/stm32746g_discovery_sd.c **** }
 1176              		.loc 1 535 3 is_stmt 1 view .LVU296
 1177 0002 FFF7FEFF 		bl	BSP_SD_WriteCpltCallback
 1178              	.LVL77:
 536:Drivers/BSP/STM32746G-Discovery/stm32746g_discovery_sd.c **** 
 1179              		.loc 1 536 1 is_stmt 0 view .LVU297
 1180 0006 08BD     		pop	{r3, pc}
 1181              		.cfi_endproc
 1182              	.LFE156:
ARM GAS  D:\cygwin64\tmp\ccfPYmj9.s 			page 32


 1184              		.section	.text.BSP_SD_ReadCpltCallback,"ax",%progbits
 1185              		.align	1
 1186              		.weak	BSP_SD_ReadCpltCallback
 1187              		.syntax unified
 1188              		.thumb
 1189              		.thumb_func
 1191              	BSP_SD_ReadCpltCallback:
 1192              	.LFB160:
 565:Drivers/BSP/STM32746G-Discovery/stm32746g_discovery_sd.c **** 
 566:Drivers/BSP/STM32746G-Discovery/stm32746g_discovery_sd.c **** /**
 567:Drivers/BSP/STM32746G-Discovery/stm32746g_discovery_sd.c ****   * @brief BSP Rx Transfer completed callbacks
 568:Drivers/BSP/STM32746G-Discovery/stm32746g_discovery_sd.c ****   * @retval None
 569:Drivers/BSP/STM32746G-Discovery/stm32746g_discovery_sd.c ****   */
 570:Drivers/BSP/STM32746G-Discovery/stm32746g_discovery_sd.c **** __weak void BSP_SD_ReadCpltCallback(void)
 571:Drivers/BSP/STM32746G-Discovery/stm32746g_discovery_sd.c **** {
 1193              		.loc 1 571 1 is_stmt 1 view -0
 1194              		.cfi_startproc
 1195              		@ args = 0, pretend = 0, frame = 0
 1196              		@ frame_needed = 0, uses_anonymous_args = 0
 1197              		@ link register save eliminated.
 572:Drivers/BSP/STM32746G-Discovery/stm32746g_discovery_sd.c **** 
 573:Drivers/BSP/STM32746G-Discovery/stm32746g_discovery_sd.c **** }
 1198              		.loc 1 573 1 view .LVU299
 1199 0000 7047     		bx	lr
 1200              		.cfi_endproc
 1201              	.LFE160:
 1203              		.section	.text.HAL_SD_RxCpltCallback,"ax",%progbits
 1204              		.align	1
 1205              		.global	HAL_SD_RxCpltCallback
 1206              		.syntax unified
 1207              		.thumb
 1208              		.thumb_func
 1210              	HAL_SD_RxCpltCallback:
 1211              	.LVL78:
 1212              	.LFB157:
 544:Drivers/BSP/STM32746G-Discovery/stm32746g_discovery_sd.c ****   BSP_SD_ReadCpltCallback();
 1213              		.loc 1 544 1 view -0
 1214              		.cfi_startproc
 1215              		@ args = 0, pretend = 0, frame = 0
 1216              		@ frame_needed = 0, uses_anonymous_args = 0
 544:Drivers/BSP/STM32746G-Discovery/stm32746g_discovery_sd.c ****   BSP_SD_ReadCpltCallback();
 1217              		.loc 1 544 1 is_stmt 0 view .LVU301
 1218 0000 08B5     		push	{r3, lr}
 1219              	.LCFI29:
 1220              		.cfi_def_cfa_offset 8
 1221              		.cfi_offset 3, -8
 1222              		.cfi_offset 14, -4
 545:Drivers/BSP/STM32746G-Discovery/stm32746g_discovery_sd.c **** }
 1223              		.loc 1 545 3 is_stmt 1 view .LVU302
 1224 0002 FFF7FEFF 		bl	BSP_SD_ReadCpltCallback
 1225              	.LVL79:
 546:Drivers/BSP/STM32746G-Discovery/stm32746g_discovery_sd.c **** 
 1226              		.loc 1 546 1 is_stmt 0 view .LVU303
 1227 0006 08BD     		pop	{r3, pc}
 1228              		.cfi_endproc
 1229              	.LFE157:
 1231              		.section	.bss.dma_tx_handle.0,"aw",%nobits
ARM GAS  D:\cygwin64\tmp\ccfPYmj9.s 			page 33


 1232              		.align	2
 1235              	dma_tx_handle.0:
 1236 0000 00000000 		.space	96
 1236      00000000 
 1236      00000000 
 1236      00000000 
 1236      00000000 
 1237              		.section	.bss.dma_rx_handle.1,"aw",%nobits
 1238              		.align	2
 1241              	dma_rx_handle.1:
 1242 0000 00000000 		.space	96
 1242      00000000 
 1242      00000000 
 1242      00000000 
 1242      00000000 
 1243              		.section	.bss.dma_tx_handle.2,"aw",%nobits
 1244              		.align	2
 1247              	dma_tx_handle.2:
 1248 0000 00000000 		.space	96
 1248      00000000 
 1248      00000000 
 1248      00000000 
 1248      00000000 
 1249              		.section	.bss.dma_rx_handle.3,"aw",%nobits
 1250              		.align	2
 1253              	dma_rx_handle.3:
 1254 0000 00000000 		.space	96
 1254      00000000 
 1254      00000000 
 1254      00000000 
 1254      00000000 
 1255              		.global	uSdHandle
 1256              		.section	.bss.uSdHandle,"aw",%nobits
 1257              		.align	2
 1260              	uSdHandle:
 1261 0000 00000000 		.space	132
 1261      00000000 
 1261      00000000 
 1261      00000000 
 1261      00000000 
 1262              		.text
 1263              	.Letext0:
 1264              		.file 2 "Drivers/CMSIS/Device/ST/STM32F7xx/Include/stm32f746xx.h"
 1265              		.file 3 "D:/arm-none-eabi-gcc/arm-gnu-toolchain-13.2.rel1-mingw-w64-i686-arm-none-eabi/arm-gnu-too
 1266              		.file 4 "D:/arm-none-eabi-gcc/arm-gnu-toolchain-13.2.rel1-mingw-w64-i686-arm-none-eabi/arm-gnu-too
 1267              		.file 5 "Drivers/STM32F7xx_HAL_Driver/Inc/stm32f7xx_hal_def.h"
 1268              		.file 6 "Drivers/STM32F7xx_HAL_Driver/Inc/stm32f7xx_hal_gpio.h"
 1269              		.file 7 "Drivers/STM32F7xx_HAL_Driver/Inc/stm32f7xx_hal_dma.h"
 1270              		.file 8 "Drivers/STM32F7xx_HAL_Driver/Inc/stm32f7xx_ll_sdmmc.h"
 1271              		.file 9 "Drivers/STM32F7xx_HAL_Driver/Inc/stm32f7xx_hal_sd.h"
 1272              		.file 10 "Drivers/STM32F7xx_HAL_Driver/Inc/stm32f7xx_hal_cortex.h"
ARM GAS  D:\cygwin64\tmp\ccfPYmj9.s 			page 34

